	.file	"build.c"
	.text
.Ltext0:
	.p2align 4,,15
	.type	median.isra.0, @function
median.isra.0:
.LFB25:
	.file 1 "../olden/tsp/src/build.c"
	.loc 1 48 0
	.cfi_startproc
.LVL0:
	subq	$40, %rsp
	.cfi_def_cfa_offset 48
	.loc 1 52 0
	xorl	%eax, %eax
	.loc 1 48 0
	movsd	%xmm0, 8(%rsp)
	movsd	%xmm1, 16(%rsp)
	.loc 1 52 0
	call	drand48@PLT
.LVL1:
	pxor	%xmm0, %xmm0
	cvtsi2sd	%eax, %xmm0
.LVL2:
	.loc 1 53 0
	ucomisd	.LC0(%rip), %xmm0
	ja	.L9
	.loc 1 57 0
	mulsd	.LC1(%rip), %xmm0
.LVL3:
	movsd	.LC3(%rip), %xmm1
	movapd	%xmm1, %xmm3
	movsd	%xmm1, 24(%rsp)
	divsd	.LC2(%rip), %xmm0
	subsd	%xmm0, %xmm3
	movapd	%xmm3, %xmm0
	call	log@PLT
.LVL4:
	xorpd	.LC5(%rip), %xmm0
	movsd	24(%rsp), %xmm1
	divsd	.LC4(%rip), %xmm0
.LVL5:
.L4:
	.loc 1 60 0
	addsd	%xmm1, %xmm0
.LVL6:
	movsd	8(%rsp), %xmm2
	movsd	16(%rsp), %xmm1
	subsd	%xmm2, %xmm1
	mulsd	%xmm1, %xmm0
	mulsd	.LC0(%rip), %xmm0
.LVL7:
	.loc 1 63 0
	addq	$40, %rsp
	.cfi_remember_state
	.cfi_def_cfa_offset 8
	.loc 1 61 0
	addsd	%xmm2, %xmm0
.LVL8:
	.loc 1 63 0
	ret
.LVL9:
	.p2align 4,,10
	.p2align 3
.L9:
	.cfi_restore_state
	.loc 1 54 0
	subsd	.LC0(%rip), %xmm0
.LVL10:
	movsd	.LC3(%rip), %xmm1
	movapd	%xmm1, %xmm4
	movsd	%xmm1, 24(%rsp)
	mulsd	.LC1(%rip), %xmm0
	divsd	.LC2(%rip), %xmm0
	subsd	%xmm0, %xmm4
	movapd	%xmm4, %xmm0
	call	log@PLT
.LVL11:
	movsd	24(%rsp), %xmm1
	divsd	.LC4(%rip), %xmm0
.LVL12:
	jmp	.L4
	.cfi_endproc
.LFE25:
	.size	median.isra.0, .-median.isra.0
	.p2align 4,,15
	.globl	build_tree
	.type	build_tree, @function
build_tree:
.LFB24:
	.loc 1 77 0
	.cfi_startproc
.LVL13:
	pushq	%r15
	.cfi_def_cfa_offset 16
	.cfi_offset 15, -16
	pushq	%r14
	.cfi_def_cfa_offset 24
	.cfi_offset 14, -24
	pushq	%r13
	.cfi_def_cfa_offset 32
	.cfi_offset 13, -32
	pushq	%r12
	.cfi_def_cfa_offset 40
	.cfi_offset 12, -40
	pushq	%rbp
	.cfi_def_cfa_offset 48
	.cfi_offset 6, -48
	pushq	%rbx
	.cfi_def_cfa_offset 56
	.cfi_offset 3, -56
	subq	$56, %rsp
	.cfi_def_cfa_offset 112
	.loc 1 84 0
	testl	%edi, %edi
	je	.L14
	movl	%ecx, %ebp
	movl	%edi, %r12d
	.loc 1 86 0
	movl	$56, %edi
.LVL14:
	movl	%edx, %r14d
	movl	%esi, %r15d
	movsd	%xmm3, 24(%rsp)
	movsd	%xmm2, 16(%rsp)
	movl	%r12d, %r13d
	movsd	%xmm1, 8(%rsp)
	shrl	$31, %r13d
	movsd	%xmm0, (%rsp)
	addl	%r12d, %r13d
	call	malloc@PLT
.LVL15:
	movl	%ebp, %ecx
	sarl	%r13d
	movq	%rax, %rbx
.LVL16:
	shrl	$31, %ecx
	addl	%ecx, %ebp
.LVL17:
	sarl	%ebp
	.loc 1 88 0
	testl	%r15d, %r15d
	leal	(%r14,%rbp), %edx
	movl	%edx, 44(%rsp)
	jne	.L16
.LVL18:
	.loc 1 104 0
	movsd	24(%rsp), %xmm1
	movsd	16(%rsp), %xmm0
	call	median.isra.0
.LVL19:
	.loc 1 106 0
	movl	44(%rsp), %edx
	movapd	%xmm0, %xmm3
	movsd	%xmm0, 32(%rsp)
	movl	%ebp, %ecx
	movl	$1, %esi
	movsd	16(%rsp), %xmm2
	movl	%r13d, %edi
	movsd	8(%rsp), %xmm1
	movsd	(%rsp), %xmm0
.LVL20:
	call	build_tree
.LVL21:
	.loc 1 107 0
	movsd	32(%rsp), %xmm4
	movl	%ebp, %ecx
	movsd	8(%rsp), %xmm1
	movl	%r14d, %edx
	movapd	%xmm4, %xmm2
	movl	$1, %esi
	movsd	(%rsp), %xmm0
	movl	%r13d, %edi
	movsd	24(%rsp), %xmm3
	.loc 1 106 0
	movq	%rax, 24(%rbx)
	.loc 1 107 0
	movsd	%xmm4, 16(%rsp)
.LVL22:
	call	build_tree
.LVL23:
	.loc 1 113 0
	movsd	16(%rsp), %xmm4
	.loc 1 107 0
	movq	%rax, 32(%rbx)
.LBB6:
.LBB7:
	.loc 1 69 0
	xorl	%eax, %eax
.LBE7:
.LBE6:
	.loc 1 113 0
	movsd	%xmm4, 16(%rbx)
.LVL24:
.LBB9:
.LBB8:
	.loc 1 69 0
	call	drand48@PLT
.LVL25:
	pxor	%xmm1, %xmm1
	.loc 1 70 0
	movsd	(%rsp), %xmm6
	movsd	8(%rsp), %xmm0
	.loc 1 69 0
	cvtsi2sd	%eax, %xmm1
.LVL26:
	.loc 1 70 0
	subsd	%xmm6, %xmm0
	mulsd	%xmm1, %xmm0
	.loc 1 71 0
	addsd	%xmm6, %xmm0
.LBE8:
.LBE9:
	.loc 1 114 0
	movsd	%xmm0, 8(%rbx)
.LVL27:
.L13:
	.loc 1 116 0
	movl	%r12d, (%rbx)
	.loc 1 117 0
	movq	$0, 40(%rbx)
	.loc 1 118 0
	movq	$0, 48(%rbx)
.LVL28:
.L10:
	.loc 1 124 0
	addq	$56, %rsp
	.cfi_remember_state
	.cfi_def_cfa_offset 56
	movq	%rbx, %rax
	popq	%rbx
	.cfi_def_cfa_offset 48
	popq	%rbp
	.cfi_def_cfa_offset 40
	popq	%r12
	.cfi_def_cfa_offset 32
	popq	%r13
	.cfi_def_cfa_offset 24
	popq	%r14
	.cfi_def_cfa_offset 16
	popq	%r15
	.cfi_def_cfa_offset 8
	ret
.LVL29:
	.p2align 4,,10
	.p2align 3
.L16:
	.cfi_restore_state
	.loc 1 90 0
	movsd	8(%rsp), %xmm1
	movsd	(%rsp), %xmm0
	call	median.isra.0
.LVL30:
	.loc 1 92 0
	movl	44(%rsp), %edx
	movapd	%xmm0, %xmm1
	movsd	24(%rsp), %xmm3
	movl	%ebp, %ecx
	movsd	16(%rsp), %xmm2
	xorl	%esi, %esi
	movsd	%xmm0, 32(%rsp)
	movl	%r13d, %edi
	movsd	(%rsp), %xmm0
.LVL31:
	call	build_tree
.LVL32:
	.loc 1 93 0
	movsd	32(%rsp), %xmm4
	movl	%ebp, %ecx
	movsd	8(%rsp), %xmm1
	movl	%r14d, %edx
	movapd	%xmm4, %xmm0
	xorl	%esi, %esi
	movsd	24(%rsp), %xmm3
	movl	%r13d, %edi
	movsd	16(%rsp), %xmm2
	.loc 1 92 0
	movq	%rax, 24(%rbx)
	.loc 1 93 0
	movsd	%xmm4, (%rsp)
.LVL33:
	call	build_tree
.LVL34:
	.loc 1 99 0
	movsd	(%rsp), %xmm4
	.loc 1 93 0
	movq	%rax, 32(%rbx)
.LBB10:
.LBB11:
	.loc 1 69 0
	xorl	%eax, %eax
.LBE11:
.LBE10:
	.loc 1 99 0
	movsd	%xmm4, 8(%rbx)
.LVL35:
.LBB13:
.LBB12:
	.loc 1 69 0
	call	drand48@PLT
.LVL36:
	pxor	%xmm1, %xmm1
	.loc 1 70 0
	movsd	16(%rsp), %xmm5
	movsd	24(%rsp), %xmm0
	.loc 1 69 0
	cvtsi2sd	%eax, %xmm1
.LVL37:
	.loc 1 70 0
	subsd	%xmm5, %xmm0
	mulsd	%xmm1, %xmm0
	.loc 1 71 0
	addsd	%xmm5, %xmm0
.LBE12:
.LBE13:
	.loc 1 100 0
	movsd	%xmm0, 16(%rbx)
	jmp	.L13
.LVL38:
	.p2align 4,,10
	.p2align 3
.L14:
	.loc 1 84 0
	xorl	%ebx, %ebx
	jmp	.L10
	.cfi_endproc
.LFE24:
	.size	build_tree, .-build_tree
	.section	.rodata.cst8,"aM",@progbits,8
	.align 8
.LC0:
	.long	0
	.long	1071644672
	.align 8
.LC1:
	.long	1423146138
	.long	1091821070
	.align 8
.LC2:
	.long	1423146138
	.long	1090772502
	.align 8
.LC3:
	.long	0
	.long	1072693248
	.align 8
.LC4:
	.long	0
	.long	1076363264
	.section	.rodata.cst16,"aM",@progbits,16
	.align 16
.LC5:
	.long	0
	.long	-2147483648
	.long	0
	.long	0
	.text
.Letext0:
	.file 2 "/usr/lib/gcc/x86_64-linux-gnu/7/include/stddef.h"
	.file 3 "/usr/include/x86_64-linux-gnu/bits/types.h"
	.file 4 "/usr/include/x86_64-linux-gnu/bits/libio.h"
	.file 5 "/usr/include/stdio.h"
	.file 6 "../olden/tsp/src/tsp.h"
	.file 7 "/usr/include/stdlib.h"
	.file 8 "/usr/include/x86_64-linux-gnu/bits/mathcalls.h"
	.section	.note.GNU-stack,"",@progbits
