	.file	"maketree.c"
	.text
.Ltext0:
	.p2align 4,,15
	.globl	MakeTree
	.type	MakeTree, @function
MakeTree:
.LFB12:
	.file 1 "../olden/perimeter/src/maketree.c"
	.loc 1 33 0
	.cfi_startproc
.LVL0:
	pushq	%r15
	.cfi_def_cfa_offset 16
	.cfi_offset 15, -16
	pushq	%r14
	.cfi_def_cfa_offset 24
	.cfi_offset 14, -24
	movq	%r9, %r14
	pushq	%r13
	.cfi_def_cfa_offset 32
	.cfi_offset 13, -32
	pushq	%r12
	.cfi_def_cfa_offset 40
	.cfi_offset 12, -40
	movl	%edx, %r13d
	pushq	%rbp
	.cfi_def_cfa_offset 48
	.cfi_offset 6, -48
	pushq	%rbx
	.cfi_def_cfa_offset 56
	.cfi_offset 3, -56
	movl	%edi, %ebp
	.loc 1 40 0
	movl	$48, %edi
.LVL1:
	.loc 1 33 0
	movl	%esi, %r12d
	movl	%ecx, %r15d
	subq	$40, %rsp
	.cfi_def_cfa_offset 96
	.loc 1 33 0
	movl	%r8d, 12(%rsp)
	.loc 1 40 0
	call	malloc@PLT
.LVL2:
	movq	%rax, %rbx
.LVL3:
	.loc 1 42 0
	movq	%r14, 40(%rax)
	.loc 1 43 0
	movl	96(%rsp), %eax
.LVL4:
.LBB37:
.LBB38:
	.loc 1 19 0
	leal	0(%r13,%rbp), %edx
	movl	%r13d, %ecx
.LBB39:
.LBB40:
	.loc 1 10 0
	movl	12(%rsp), %r8d
	subl	%ebp, %ecx
.LBE40:
.LBE39:
.LBE38:
.LBE37:
	.loc 1 43 0
	movl	%eax, 4(%rbx)
.LVL5:
.LBB79:
.LBB77:
	.loc 1 19 0
	leal	(%r12,%rbp), %eax
.LVL6:
.LBB42:
.LBB41:
	.loc 1 8 0
	imull	%edx, %edx
.LVL7:
	imull	%eax, %eax
.LVL8:
	imull	%ecx, %ecx
	leal	(%rax,%rdx), %edi
.LVL9:
	leal	(%rax,%rcx), %esi
	movl	%r12d, %eax
	subl	%ebp, %eax
	imull	%eax, %eax
	addl	%eax, %ecx
	addl	%eax, %edx
	.loc 1 10 0
	cmpl	$4194304, %edi
	jg	.L11
	.loc 1 11 0
	cmpl	$1048575, %edi
	jg	.L19
.LVL10:
.L3:
.LBE41:
.LBE42:
.LBB43:
.LBB44:
	xorl	%eax, %eax
	cmpl	$1048575, %edi
	setle	%al
	negl	%eax
.LBE44:
.LBE43:
.LBB47:
.LBB48:
	.loc 1 10 0
	cmpl	$4194304, %esi
.LBE48:
.LBE47:
.LBB53:
.LBB45:
	.loc 1 11 0
	movl	%eax, %edi
.LVL11:
.LBE45:
.LBE53:
.LBB54:
.LBB49:
	.loc 1 10 0
	movl	$1, %eax
	jle	.L20
.LVL12:
.L5:
.LBE49:
.LBE54:
	.loc 1 23 0
	addl	%edi, %eax
.LVL13:
.LBB55:
.LBB56:
	.loc 1 10 0
	cmpl	$4194304, %ecx
	movl	$1, %esi
	jle	.L21
.LVL14:
.L6:
	movl	%ebp, %ecx
.LBE56:
.LBE55:
	.loc 1 24 0
	addl	%esi, %eax
.LVL15:
	shrl	$31, %ecx
	addl	%ecx, %ebp
.LVL16:
	sarl	%ebp
.LBB60:
.LBB61:
	.loc 1 10 0
	cmpl	$4194304, %edx
	jg	.L14
	.loc 1 11 0
	cmpl	$1048575, %edx
	jg	.L8
	movl	$-1, %edx
.L7:
.LVL17:
.LBE61:
.LBE60:
	.loc 1 27 0
	leal	4(%rax,%rdx), %eax
.LVL18:
	andl	$-9, %eax
	jne	.L8
.LVL19:
.LBE77:
.LBE79:
	.loc 1 47 0
	cmpl	$511, %ebp
	jle	.L22
.LVL20:
.L8:
	.loc 1 65 0
	movl	104(%rsp), %eax
	testl	%eax, %eax
	jne	.L9
.LVL21:
.L17:
	.loc 1 67 0
	movl	$0, (%rbx)
	.loc 1 68 0
	movq	$0, 8(%rbx)
	.loc 1 69 0
	movq	$0, 16(%rbx)
	.loc 1 70 0
	movq	$0, 24(%rbx)
	.loc 1 71 0
	movq	$0, 32(%rbx)
.LVL22:
.L1:
	.loc 1 120 0
	addq	$40, %rsp
	.cfi_remember_state
	.cfi_def_cfa_offset 56
	movq	%rbx, %rax
	popq	%rbx
	.cfi_def_cfa_offset 48
.LVL23:
	popq	%rbp
	.cfi_def_cfa_offset 40
	popq	%r12
	.cfi_def_cfa_offset 32
	popq	%r13
	.cfi_def_cfa_offset 24
	popq	%r14
	.cfi_def_cfa_offset 16
	popq	%r15
	.cfi_def_cfa_offset 8
.LVL24:
	ret
.LVL25:
	.p2align 4,,10
	.p2align 3
.L11:
	.cfi_restore_state
.LBB80:
.LBB78:
.LBB63:
.LBB50:
	.loc 1 10 0
	cmpl	$4194304, %esi
.LBE50:
.LBE63:
.LBB64:
.LBB46:
	movl	$1, %edi
.LVL26:
.LBE46:
.LBE64:
.LBB65:
.LBB51:
	movl	$1, %eax
	jg	.L5
.LVL27:
.L20:
	.loc 1 11 0
	xorl	%eax, %eax
	cmpl	$1048575, %esi
.LBE51:
.LBE65:
.LBB66:
.LBB57:
	.loc 1 10 0
	movl	$1, %esi
.LBE57:
.LBE66:
.LBB67:
.LBB52:
	.loc 1 11 0
	setle	%al
	negl	%eax
.LVL28:
.LBE52:
.LBE67:
	.loc 1 23 0
	addl	%edi, %eax
.LVL29:
.LBB68:
.LBB58:
	.loc 1 10 0
	cmpl	$4194304, %ecx
	jg	.L6
	jmp	.L21
.LVL30:
	.p2align 4,,10
	.p2align 3
.L14:
.LBE58:
.LBE68:
.LBB69:
.LBB62:
	movl	$1, %edx
	jmp	.L7
.LVL31:
	.p2align 4,,10
	.p2align 3
.L21:
.LBE62:
.LBE69:
.LBB70:
.LBB59:
	.loc 1 11 0
	xorl	%esi, %esi
	cmpl	$1048575, %ecx
	setle	%sil
	negl	%esi
	jmp	.L6
.LVL32:
	.p2align 4,,10
	.p2align 3
.L19:
.LBE59:
.LBE70:
.LBB71:
.LBB72:
	leal	-1048576(%rsi), %eax
	cmpl	$3145728, %eax
	ja	.L3
.LVL33:
.LBE72:
.LBE71:
.LBB73:
.LBB74:
	leal	-1048576(%rcx), %eax
	cmpl	$3145728, %eax
	ja	.L3
.LVL34:
.LBE74:
.LBE73:
.LBB75:
.LBB76:
	leal	-1048576(%rdx), %eax
	cmpl	$3145728, %eax
	ja	.L3
	jmp	.L17
.LVL35:
	.p2align 4,,10
	.p2align 3
.L22:
.LBE76:
.LBE75:
.LBE78:
.LBE80:
	.loc 1 49 0
	movl	$1, (%rbx)
	.loc 1 50 0
	movq	$0, 8(%rbx)
	.loc 1 51 0
	movq	$0, 16(%rbx)
	.loc 1 52 0
	movq	$0, 24(%rbx)
	.loc 1 53 0
	movq	$0, 32(%rbx)
	jmp	.L1
	.p2align 4,,10
	.p2align 3
.L9:
.LBB81:
	.loc 1 80 0
	leal	(%r15,%r8), %eax
	.loc 1 84 0
	movl	104(%rsp), %edi
	movl	%r12d, %esi
	subl	%ebp, %esi
	movq	%rbx, %r9
	.loc 1 87 0
	addl	%ebp, %r12d
.LVL36:
	.loc 1 80 0
	movl	%eax, %r10d
	shrl	$31, %r10d
	.loc 1 84 0
	leal	-1(%rdi), %r14d
.LVL37:
	movl	%r13d, %edi
	.loc 1 80 0
	addl	%eax, %r10d
	.loc 1 81 0
	addl	$1, %eax
	.loc 1 84 0
	subl	%ebp, %edi
	.loc 1 81 0
	movl	%eax, %edx
	.loc 1 80 0
	sarl	%r10d
	.loc 1 90 0
	addl	%ebp, %r13d
.LVL38:
	.loc 1 81 0
	shrl	$31, %edx
	.loc 1 80 0
	movl	%r10d, 28(%rsp)
.LVL39:
	.loc 1 81 0
	addl	%edx, %eax
	sarl	%eax
.LVL40:
	.loc 1 85 0
	leal	(%r8,%rax), %r11d
	movl	%eax, 20(%rsp)
	leal	1(%r11), %eax
.LVL41:
	movl	%r11d, 24(%rsp)
	.loc 1 84 0
	pushq	%r14
	.cfi_def_cfa_offset 104
	pushq	$2
	.cfi_def_cfa_offset 112
	movl	%eax, %edx
	shrl	$31, %edx
	movl	%edi, 28(%rsp)
.LVL42:
	movl	%esi, 32(%rsp)
	movl	%edx, %ecx
	movl	%edi, %edx
	movl	%ebp, %edi
	addl	%eax, %ecx
	sarl	%ecx
	call	MakeTree
.LVL43:
	.loc 1 87 0
	movl	40(%rsp), %r11d
	pushq	%r14
	.cfi_def_cfa_offset 120
	movq	%rbx, %r9
	pushq	$3
	.cfi_def_cfa_offset 128
	movl	52(%rsp), %ecx
	movl	%r12d, %esi
	movl	44(%rsp), %edx
	movl	%ebp, %edi
	.loc 1 84 0
	movq	%rax, 24(%rbx)
	.loc 1 87 0
	movl	%r11d, %r8d
	shrl	$31, %r8d
	addl	%r11d, %r8d
	sarl	%r8d
	call	MakeTree
.LVL44:
	.loc 1 91 0
	movl	60(%rsp), %r10d
	.loc 1 87 0
	movq	%rax, 32(%rbx)
	.loc 1 90 0
	addq	$32, %rsp
	.cfi_def_cfa_offset 96
	movq	%rbx, %r9
	movl	%r13d, %edx
	movl	%r12d, %esi
	movl	%ebp, %edi
	.loc 1 91 0
	leal	(%r15,%r10), %r11d
	.loc 1 90 0
	movl	%r10d, %r8d
	.loc 1 91 0
	leal	1(%r11), %eax
	movl	%r11d, 12(%rsp)
	.loc 1 90 0
	pushq	%r14
	.cfi_def_cfa_offset 104
	pushq	$1
	.cfi_def_cfa_offset 112
	movl	%eax, %ecx
	shrl	$31, %ecx
	addl	%eax, %ecx
	sarl	%ecx
	call	MakeTree
.LVL45:
	.loc 1 93 0
	movl	28(%rsp), %r11d
	pushq	%r14
	.cfi_def_cfa_offset 120
	movq	%rbx, %r9
	pushq	$0
	.cfi_def_cfa_offset 128
	movl	48(%rsp), %esi
	movl	%r15d, %ecx
	movl	%r13d, %edx
	movl	%ebp, %edi
	.loc 1 90 0
	movq	%rax, 16(%rbx)
	.loc 1 93 0
	movl	%r11d, %r8d
	shrl	$31, %r8d
	addl	%r11d, %r8d
	sarl	%r8d
	call	MakeTree
.LVL46:
	.loc 1 116 0
	movl	$2, (%rbx)
	.loc 1 93 0
	movq	%rax, 8(%rbx)
	.loc 1 116 0
	addq	$32, %rsp
	.cfi_def_cfa_offset 96
.LBE81:
	.loc 1 119 0
	jmp	.L1
	.cfi_endproc
.LFE12:
	.size	MakeTree, .-MakeTree
.Letext0:
	.file 2 "../olden/perimeter/src/perimeter.h"
	.file 3 "/usr/include/stdlib.h"
	.section	.note.GNU-stack,"",@progbits
