	.file	"make_graph.c"
	.text
.Ltext0:
	.p2align 4,,15
	.globl	localize
	.type	localize, @function
localize:
.LFB32:
	.file 1 "../olden/em3d/src/make_graph.c"
	.loc 1 252 0
	.cfi_startproc
.LVL0:
	movslq	%esi, %rsi
	leaq	(%rdi,%rsi,8), %rdx
.LVL1:
	.loc 1 257 0
	movq	8(%rdx), %rax
	movq	(%rax), %rax
.LVL2:
.LBB47:
.LBB48:
	.loc 1 171 0
	testq	%rax, %rax
	je	.L2
.LVL3:
	.p2align 4,,10
	.p2align 3
.L3:
	movq	8(%rax), %rax
.LVL4:
	testq	%rax, %rax
	jne	.L3
.L2:
.LVL5:
.LBE48:
.LBE47:
	.loc 1 261 0
	movq	(%rdx), %rax
	movq	(%rax), %rax
.LVL6:
.LBB49:
.LBB50:
	.loc 1 171 0
	testq	%rax, %rax
	je	.L1
.LVL7:
	.p2align 4,,10
	.p2align 3
.L5:
	movq	8(%rax), %rax
.LVL8:
	testq	%rax, %rax
	jne	.L5
.L1:
.LBE50:
.LBE49:
	.loc 1 263 0
	rep ret
	.cfi_endproc
.LFE32:
	.size	localize, .-localize
	.p2align 4,,15
	.globl	clear_nummiss
	.type	clear_nummiss, @function
clear_nummiss:
.LFB33:
	.loc 1 266 0
	.cfi_startproc
.LVL9:
	.loc 1 267 0
	movl	$0, NumMisses(%rip)
	.loc 1 268 0
	ret
	.cfi_endproc
.LFE33:
	.size	clear_nummiss, .-clear_nummiss
	.section	.rodata.str1.1,"aMS",@progbits,1
.LC0:
	.string	"Assertion failure"
	.section	.text.unlikely,"ax",@progbits
	.type	make_table.part.0, @function
make_table.part.0:
.LFB36:
	.loc 1 25 0
	.cfi_startproc
.LVL10:
.LBB51:
.LBB52:
	.file 2 "/usr/include/x86_64-linux-gnu/bits/stdio2.h"
	.loc 2 104 0
	leaq	.LC0(%rip), %rdi
.LBE52:
.LBE51:
	.loc 1 25 0
	subq	$8, %rsp
	.cfi_def_cfa_offset 16
.LBB54:
.LBB53:
	.loc 2 104 0
	call	puts@PLT
.LVL11:
.LBE53:
.LBE54:
	.loc 1 27 0
	orl	$-1, %edi
	call	exit@PLT
.LVL12:
	.cfi_endproc
.LFE36:
	.size	make_table.part.0, .-make_table.part.0
	.text
	.p2align 4,,15
	.globl	make_table
	.type	make_table, @function
make_table:
.LFB22:
	.loc 1 25 0
	.cfi_startproc
.LVL13:
	.loc 1 26 0
	movslq	%edi, %rdi
	.loc 1 25 0
	subq	$8, %rsp
	.cfi_def_cfa_offset 16
	.loc 1 26 0
	salq	$3, %rdi
.LVL14:
	call	malloc@PLT
.LVL15:
	.loc 1 27 0
	testq	%rax, %rax
	je	.L21
	.loc 1 29 0
	addq	$8, %rsp
	.cfi_remember_state
	.cfi_def_cfa_offset 8
	ret
.L21:
	.cfi_restore_state
	call	make_table.part.0
.LVL16:
	.cfi_endproc
.LFE22:
	.size	make_table, .-make_table
	.p2align 4,,15
	.globl	fill_table
	.type	fill_table, @function
fill_table:
.LFB23:
	.loc 1 33 0
	.cfi_startproc
.LVL17:
	pushq	%r15
	.cfi_def_cfa_offset 16
	.cfi_offset 15, -16
	pushq	%r14
	.cfi_def_cfa_offset 24
	.cfi_offset 14, -24
	movq	%rdi, %r14
	pushq	%r13
	.cfi_def_cfa_offset 32
	.cfi_offset 13, -32
	pushq	%r12
	.cfi_def_cfa_offset 40
	.cfi_offset 12, -40
	.loc 1 37 0
	movl	$48, %edi
.LVL18:
	.loc 1 33 0
	pushq	%rbp
	.cfi_def_cfa_offset 48
	.cfi_offset 6, -48
	pushq	%rbx
	.cfi_def_cfa_offset 56
	.cfi_offset 3, -56
	movq	%rsi, %r12
	movl	%edx, %r15d
	subq	$8, %rsp
	.cfi_def_cfa_offset 64
	.loc 1 37 0
	call	malloc@PLT
.LVL19:
	.loc 1 38 0
	movq	%rax, (%r14)
	.loc 1 37 0
	movq	%rax, %r13
.LVL20:
	.loc 1 39 0
	call	gen_uniform_double@PLT
.LVL21:
	.loc 1 44 0
	cmpl	$1, %r15d
	.loc 1 39 0
	movsd	%xmm0, (%r12)
.LVL22:
	.loc 1 40 0
	movq	%r12, 0(%r13)
	.loc 1 41 0
	movl	$0, 40(%r13)
.LVL23:
	.loc 1 44 0
	jle	.L23
	leal	-2(%r15), %eax
	leaq	8(%r12), %rbp
.LVL24:
	leaq	8(%r14), %r12
	leaq	16(%r14,%rax,8), %r14
.LVL25:
	.p2align 4,,10
	.p2align 3
.L24:
	.loc 1 45 0 discriminator 3
	movl	$48, %edi
	addq	$8, %r12
	call	malloc@PLT
.LVL26:
	movq	%rax, %rbx
	.loc 1 46 0 discriminator 3
	call	gen_uniform_double@PLT
.LVL27:
	movsd	%xmm0, 0(%rbp)
	.loc 1 49 0 discriminator 3
	movq	%rbx, -8(%r12)
	.loc 1 47 0 discriminator 3
	movq	%rbp, (%rbx)
	addq	$8, %rbp
.LVL28:
	.loc 1 44 0 discriminator 3
	cmpq	%r14, %r12
	.loc 1 48 0 discriminator 3
	movl	$0, 40(%rbx)
	.loc 1 50 0 discriminator 3
	movq	%rbx, 8(%r13)
.LVL29:
	movq	%rbx, %r13
	.loc 1 44 0 discriminator 3
	jne	.L24
.L23:
	.loc 1 53 0
	movq	$0, 8(%rbx)
	.loc 1 54 0
	addq	$8, %rsp
	.cfi_def_cfa_offset 56
	popq	%rbx
	.cfi_def_cfa_offset 48
	popq	%rbp
	.cfi_def_cfa_offset 40
	popq	%r12
	.cfi_def_cfa_offset 32
	popq	%r13
	.cfi_def_cfa_offset 24
	popq	%r14
	.cfi_def_cfa_offset 16
	popq	%r15
	.cfi_def_cfa_offset 8
.LVL30:
	ret
	.cfi_endproc
.LFE23:
	.size	fill_table, .-fill_table
	.p2align 4,,15
	.globl	make_tables
	.type	make_tables, @function
make_tables:
.LFB28:
	.loc 1 179 0
	.cfi_startproc
.LVL31:
	pushq	%r15
	.cfi_def_cfa_offset 16
	.cfi_offset 15, -16
	pushq	%r14
	.cfi_def_cfa_offset 24
	.cfi_offset 14, -24
	pushq	%r13
	.cfi_def_cfa_offset 32
	.cfi_offset 13, -32
	pushq	%r12
	.cfi_def_cfa_offset 40
	.cfi_offset 12, -40
	movq	%rdi, %r12
	pushq	%rbp
	.cfi_def_cfa_offset 48
	.cfi_offset 6, -48
	movslq	%esi, %rbp
	pushq	%rbx
	.cfi_def_cfa_offset 56
	.cfi_offset 3, -56
	.loc 1 184 0
	imull	$793, %ebp, %edi
.LVL32:
	.loc 1 179 0
	subq	$8, %rsp
	.cfi_def_cfa_offset 64
	.loc 1 184 0
	call	init_random@PLT
.LVL33:
	.loc 1 185 0
	movslq	n_nodes(%rip), %rbx
	movq	%rbx, %r14
	salq	$3, %rbx
	movq	%rbx, %rdi
	call	malloc@PLT
.LVL34:
.LBB55:
.LBB56:
	.loc 1 26 0
	movq	%rbx, %rdi
.LBE56:
.LBE55:
	.loc 1 185 0
	movq	%rax, %r15
.LVL35:
.LBB59:
.LBB57:
	.loc 1 26 0
	call	malloc@PLT
.LVL36:
	.loc 1 27 0
	testq	%rax, %rax
	je	.L29
.LBE57:
.LBE59:
	.loc 1 187 0
	xorl	%ecx, %ecx
	movl	%r14d, %edx
	movq	%r15, %rsi
	movq	%rax, %rdi
	movq	%rax, %r13
.LVL37:
	call	fill_table
.LVL38:
	.loc 1 188 0
	movslq	n_nodes(%rip), %rbx
	movq	%rbx, %r14
	salq	$3, %rbx
	movq	%rbx, %rdi
	call	malloc@PLT
.LVL39:
.LBB60:
.LBB61:
	.loc 1 26 0
	movq	%rbx, %rdi
.LBE61:
.LBE60:
	.loc 1 188 0
	movq	%rax, %r15
.LVL40:
.LBB63:
.LBB62:
	.loc 1 26 0
	call	malloc@PLT
.LVL41:
	.loc 1 27 0
	testq	%rax, %rax
	.loc 1 26 0
	movq	%rax, %rbx
.LVL42:
	.loc 1 27 0
	je	.L29
.LVL43:
.LBE62:
.LBE63:
	.loc 1 190 0
	movl	%r14d, %edx
	movq	%r15, %rsi
	movq	%rax, %rdi
	xorl	%ecx, %ecx
	call	fill_table
.LVL44:
	leaq	(%r12,%rbp,8), %rax
	.loc 1 194 0
	movq	%rbx, (%rax)
	.loc 1 195 0
	movq	%r13, 8(%rax)
	.loc 1 196 0
	addq	$8, %rsp
	.cfi_remember_state
	.cfi_def_cfa_offset 56
	popq	%rbx
	.cfi_def_cfa_offset 48
	popq	%rbp
	.cfi_def_cfa_offset 40
.LVL45:
	popq	%r12
	.cfi_def_cfa_offset 32
.LVL46:
	popq	%r13
	.cfi_def_cfa_offset 24
	popq	%r14
	.cfi_def_cfa_offset 16
	popq	%r15
	.cfi_def_cfa_offset 8
.LVL47:
	ret
.LVL48:
.L29:
	.cfi_restore_state
.LBB64:
.LBB58:
	call	make_table.part.0
.LVL49:
.LBE58:
.LBE64:
	.cfi_endproc
.LFE28:
	.size	make_tables, .-make_tables
	.section	.rodata.str1.1
.LC1:
	.string	"Uncaught malloc error"
.LC2:
	.string	"Error! on dest %d @ %d\n"
.LC3:
	.string	"Error! no to_nodes filed!"
	.text
	.p2align 4,,15
	.globl	make_neighbors
	.type	make_neighbors, @function
make_neighbors:
.LFB24:
	.loc 1 58 0
	.cfi_startproc
.LVL50:
	pushq	%r15
	.cfi_def_cfa_offset 16
	.cfi_offset 15, -16
	pushq	%r14
	.cfi_def_cfa_offset 24
	.cfi_offset 14, -24
	pushq	%r13
	.cfi_def_cfa_offset 32
	.cfi_offset 13, -32
	pushq	%r12
	.cfi_def_cfa_offset 40
	.cfi_offset 12, -40
	pushq	%rbp
	.cfi_def_cfa_offset 48
	.cfi_offset 6, -48
	pushq	%rbx
	.cfi_def_cfa_offset 56
	.cfi_offset 3, -56
	subq	$56, %rsp
	.cfi_def_cfa_offset 112
	.loc 1 61 0
	testq	%rdi, %rdi
	.loc 1 58 0
	movq	%rsi, 16(%rsp)
	movl	%ecx, 36(%rsp)
	movl	%r9d, 8(%rsp)
	.loc 1 61 0
	je	.L34
.LBB65:
	.loc 1 66 0
	movslq	%ecx, %rax
	movq	%rdi, %r13
	movl	%edx, %r14d
	salq	$3, %rax
	movl	%r8d, %r15d
	movq	%rax, 40(%rsp)
	movslq	%r9d, %rax
	leaq	(%rsi,%rax,8), %rax
	movq	%rax, (%rsp)
.LVL51:
.L46:
	movq	40(%rsp), %rdi
	call	malloc@PLT
.LVL52:
	.loc 1 67 0
	testq	%rax, %rax
	.loc 1 66 0
	movq	%rax, 16(%r13)
	.loc 1 67 0
	je	.L36
.LVL53:
	.loc 1 72 0
	movl	36(%rsp), %eax
	xorl	%ebp, %ebp
	movl	$-1, 32(%rsp)
	movq	$0, 24(%rsp)
	testl	%eax, %eax
	jle	.L38
.LVL54:
	.p2align 4,,10
	.p2align 3
.L37:
	movl	32(%rsp), %r12d
	salq	$3, %r12
	.p2align 4,,10
	.p2align 3
.L55:
.LBB66:
	.loc 1 75 0
	movl	%r14d, %edi
	call	gen_number@PLT
.LVL55:
	.loc 1 77 0
	movl	%r15d, %edi
	.loc 1 75 0
	movl	%eax, %ebx
.LVL56:
	.loc 1 77 0
	call	check_percent@PLT
.LVL57:
	testl	%eax, %eax
	je	.L60
	movq	(%rsp), %rdx
	.loc 1 85 0
	movslq	%ebx, %rax
	.loc 1 78 0
	movl	8(%rsp), %ecx
.LVL58:
	.loc 1 85 0
	movq	(%rdx), %rdx
.LVL59:
	movq	(%rdx,%rax,8), %rdx
.LVL60:
	.loc 1 86 0
	testq	%rdx, %rdx
	je	.L40
.LVL61:
.L61:
	.loc 1 91 0
	testl	%ebp, %ebp
	movq	16(%r13), %rsi
	je	.L41
	.loc 1 92 0
	cmpq	(%rsi), %rdx
	je	.L55
	leaq	8(%rsi), %rax
	leaq	(%rax,%r12), %rcx
.LVL62:
	jmp	.L43
.LVL63:
	.p2align 4,,10
	.p2align 3
.L44:
	addq	$8, %rax
	cmpq	%rdx, -8(%rax)
	je	.L55
.L43:
	.loc 1 91 0 discriminator 2
	cmpq	%rax, %rcx
	jne	.L44
.L45:
.LBE66:
	.loc 1 108 0 discriminator 2
	movq	24(%rsp), %rax
	.loc 1 72 0 discriminator 2
	addl	$1, %ebp
.LVL64:
	addl	$1, 32(%rsp)
	.loc 1 108 0 discriminator 2
	movq	%rdx, (%rsi,%rax)
	addq	$8, %rax
	.loc 1 113 0 discriminator 2
	addl	$1, 40(%rdx)
	.loc 1 72 0 discriminator 2
	cmpl	%ebp, 36(%rsp)
	movq	%rax, 24(%rsp)
	jne	.L37
.LVL65:
.L38:
.LBE65:
	.loc 1 61 0
	movq	8(%r13), %r13
.LVL66:
	testq	%r13, %r13
	jne	.L46
.LVL67:
.L34:
	.loc 1 116 0
	addq	$56, %rsp
	.cfi_remember_state
	.cfi_def_cfa_offset 56
	popq	%rbx
	.cfi_def_cfa_offset 48
	popq	%rbp
	.cfi_def_cfa_offset 40
	popq	%r12
	.cfi_def_cfa_offset 32
	popq	%r13
	.cfi_def_cfa_offset 24
	popq	%r14
	.cfi_def_cfa_offset 16
	popq	%r15
	.cfi_def_cfa_offset 8
	ret
.LVL68:
	.p2align 4,,10
	.p2align 3
.L60:
	.cfi_restore_state
.LBB74:
.LBB69:
	.loc 1 80 0
	movl	$1, %edi
	movl	%eax, 12(%rsp)
	call	gen_signed_number@PLT
.LVL69:
	movq	16(%rsp), %rdx
	.loc 1 85 0
	movslq	%ebx, %rax
	movl	12(%rsp), %ecx
.LVL70:
	movq	(%rdx), %rdx
.LVL71:
	movq	(%rdx,%rax,8), %rdx
.LVL72:
	.loc 1 86 0
	testq	%rdx, %rdx
	jne	.L61
.LVL73:
.L40:
.LBB67:
.LBB68:
	.loc 2 104 0
	leaq	.LC2(%rip), %rsi
	movl	$1, %edi
	movl	%ebx, %edx
.LVL74:
	xorl	%eax, %eax
	call	__printf_chk@PLT
.LVL75:
.LBE68:
.LBE67:
	.loc 1 88 0
	movl	$1, %edi
	call	exit@PLT
.LVL76:
	.p2align 4,,10
	.p2align 3
.L41:
.LBE69:
	.loc 1 103 0
	testq	%rsi, %rsi
	jne	.L45
.LVL77:
.LBB70:
.LBB71:
	.loc 2 104 0
	leaq	.LC3(%rip), %rdi
	call	puts@PLT
.LVL78:
.LBE71:
.LBE70:
	.loc 1 105 0
	movl	$1, %edi
	call	exit@PLT
.LVL79:
.L36:
.LBB72:
.LBB73:
	.loc 2 104 0
	leaq	.LC1(%rip), %rdi
	call	puts@PLT
.LVL80:
.LBE73:
.LBE72:
	.loc 1 69 0
	xorl	%edi, %edi
	call	exit@PLT
.LVL81:
.LBE74:
	.cfi_endproc
.LFE24:
	.size	make_neighbors, .-make_neighbors
	.p2align 4,,15
	.globl	make_all_neighbors
	.type	make_all_neighbors, @function
make_all_neighbors:
.LFB29:
	.loc 1 198 0
	.cfi_startproc
.LVL82:
	pushq	%r12
	.cfi_def_cfa_offset 16
	.cfi_offset 12, -16
	pushq	%rbp
	.cfi_def_cfa_offset 24
	.cfi_offset 6, -24
	movl	%esi, %ebp
	pushq	%rbx
	.cfi_def_cfa_offset 32
	.cfi_offset 3, -32
	.loc 1 198 0
	movq	%rdi, %rbx
	.loc 1 203 0
	imull	$39, %esi, %edi
.LVL83:
	call	init_random@PLT
.LVL84:
	movslq	%ebp, %rax
	.loc 1 208 0
	movl	local_p(%rip), %r8d
	movl	d_nodes(%rip), %ecx
	leaq	(%rbx,%rax,8), %r12
.LVL85:
	movl	n_nodes(%rip), %edx
	movl	%ebp, %r9d
	movq	%rbx, %rsi
	.loc 1 207 0
	movq	8(%r12), %rax
	.loc 1 208 0
	movq	(%rax), %rdi
	call	make_neighbors
.LVL86:
	.loc 1 214 0
	movq	(%r12), %rax
	.loc 1 213 0
	leaq	8(%rbx), %rsi
.LVL87:
	.loc 1 215 0
	movl	%ebp, %r9d
	.loc 1 218 0
	popq	%rbx
	.cfi_def_cfa_offset 24
.LVL88:
	popq	%rbp
	.cfi_def_cfa_offset 16
.LVL89:
	popq	%r12
	.cfi_def_cfa_offset 8
.LVL90:
	.loc 1 215 0
	movl	local_p(%rip), %r8d
	movl	d_nodes(%rip), %ecx
	movl	n_nodes(%rip), %edx
	movq	(%rax), %rdi
	jmp	make_neighbors
.LVL91:
	.cfi_endproc
.LFE29:
	.size	make_all_neighbors, .-make_all_neighbors
	.section	.rodata.str1.8,"aMS",@progbits,1
	.align 8
.LC4:
	.string	"Help! no from count (from_count=%d) \n"
	.text
	.p2align 4,,15
	.globl	update_from_coeffs
	.type	update_from_coeffs, @function
update_from_coeffs:
.LFB25:
	.loc 1 118 0
	.cfi_startproc
.LVL92:
	.loc 1 122 0
	testq	%rdi, %rdi
	je	.L74
	.loc 1 118 0
	pushq	%r12
	.cfi_def_cfa_offset 16
	.cfi_offset 12, -16
.LBB75:
.LBB76:
.LBB77:
	.loc 2 104 0
	leaq	.LC4(%rip), %r12
.LBE77:
.LBE76:
.LBE75:
	.loc 1 118 0
	pushq	%rbp
	.cfi_def_cfa_offset 24
	.cfi_offset 6, -24
	pushq	%rbx
	.cfi_def_cfa_offset 32
	.cfi_offset 3, -32
	movq	%rdi, %rbx
	jmp	.L68
.LVL93:
	.p2align 4,,10
	.p2align 3
.L66:
.LBB80:
	.loc 1 131 0
	leaq	0(,%rdx,8), %rbp
	movq	%rbp, %rdi
	call	malloc@PLT
.LVL94:
	.loc 1 132 0
	movq	%rbp, %rdi
	.loc 1 131 0
	movq	%rax, 24(%rbx)
	.loc 1 132 0
	call	malloc@PLT
.LVL95:
	.loc 1 133 0
	movl	$0, 44(%rbx)
	.loc 1 132 0
	movq	%rax, 32(%rbx)
.LBE80:
	.loc 1 122 0
	movq	8(%rbx), %rbx
.LVL96:
	testq	%rbx, %rbx
	je	.L77
.LVL97:
.L68:
.LBB81:
	.loc 1 123 0
	movslq	40(%rbx), %rdx
.LVL98:
	.loc 1 125 0
	testl	%edx, %edx
	jg	.L66
.LVL99:
.LBB79:
.LBB78:
	.loc 2 104 0
	movq	%r12, %rsi
	movl	$1, %edi
	xorl	%eax, %eax
	call	__printf_chk@PLT
.LVL100:
.LBE78:
.LBE79:
	.loc 1 127 0
	movl	$160, %edi
	call	malloc@PLT
.LVL101:
	.loc 1 128 0
	movl	$160, %edi
	.loc 1 127 0
	movq	%rax, 24(%rbx)
	.loc 1 128 0
	call	malloc@PLT
.LVL102:
	.loc 1 129 0
	movl	$0, 44(%rbx)
	.loc 1 128 0
	movq	%rax, 32(%rbx)
.LBE81:
	.loc 1 122 0
	movq	8(%rbx), %rbx
.LVL103:
	testq	%rbx, %rbx
	jne	.L68
.L77:
	.loc 1 136 0
	popq	%rbx
	.cfi_def_cfa_offset 24
.LVL104:
	popq	%rbp
	.cfi_def_cfa_offset 16
	popq	%r12
	.cfi_def_cfa_offset 8
	ret
.LVL105:
	.p2align 4,,10
	.p2align 3
.L74:
	.cfi_restore 3
	.cfi_restore 6
	.cfi_restore 12
	rep ret
	.cfi_endproc
.LFE25:
	.size	update_from_coeffs, .-update_from_coeffs
	.p2align 4,,15
	.globl	update_all_from_coeffs
	.type	update_all_from_coeffs, @function
update_all_from_coeffs:
.LFB30:
	.loc 1 221 0
	.cfi_startproc
.LVL106:
	movslq	%esi, %rsi
	pushq	%rbx
	.cfi_def_cfa_offset 16
	.cfi_offset 3, -16
	leaq	(%rdi,%rsi,8), %rbx
.LVL107:
	.loc 1 228 0
	movq	8(%rbx), %rax
	.loc 1 229 0
	movq	(%rax), %rdi
.LVL108:
	call	update_from_coeffs
.LVL109:
	.loc 1 232 0
	movq	(%rbx), %rax
	.loc 1 234 0
	popq	%rbx
	.cfi_def_cfa_offset 8
.LVL110:
	.loc 1 233 0
	movq	(%rax), %rdi
	jmp	update_from_coeffs
.LVL111:
	.cfi_endproc
.LFE30:
	.size	update_all_from_coeffs, .-update_all_from_coeffs
	.section	.rodata.str1.1
.LC5:
	.string	"Help!!"
	.text
	.p2align 4,,15
	.globl	fill_from_fields
	.type	fill_from_fields, @function
fill_from_fields:
.LFB26:
	.loc 1 138 0
	.cfi_startproc
.LVL112:
	.loc 1 140 0
	testq	%rdi, %rdi
	je	.L96
	leal	-1(%rsi), %eax
	.loc 1 138 0
	pushq	%r15
	.cfi_def_cfa_offset 16
	.cfi_offset 15, -16
	pushq	%r14
	.cfi_def_cfa_offset 24
	.cfi_offset 14, -24
	pushq	%r13
	.cfi_def_cfa_offset 32
	.cfi_offset 13, -32
	pushq	%r12
	.cfi_def_cfa_offset 40
	.cfi_offset 12, -40
	movq	%rdi, %r15
	pushq	%rbp
	.cfi_def_cfa_offset 48
	.cfi_offset 6, -48
	pushq	%rbx
	.cfi_def_cfa_offset 56
	.cfi_offset 3, -56
	leaq	8(,%rax,8), %rbp
	movl	%esi, %r12d
	subq	$8, %rsp
	.cfi_def_cfa_offset 64
.LVL113:
	.p2align 4,,10
	.p2align 3
.L82:
.LBB82:
	.loc 1 143 0
	xorl	%r14d, %r14d
	testl	%r12d, %r12d
	jg	.L84
	jmp	.L85
.LVL114:
	.p2align 4,,10
	.p2align 3
.L83:
.LBB83:
	.loc 1 150 0
	movslq	44(%rbx), %rax
	addq	$8, %r14
	leal	1(%rax), %edx
	movl	%edx, 44(%rbx)
.LVL115:
	.loc 1 160 0
	movq	24(%rbx), %rdx
	movq	%r13, (%rdx,%rax,8)
	.loc 1 163 0
	movq	32(%rbx), %rdx
	leaq	(%rdx,%rax,8), %rbx
.LVL116:
	call	gen_uniform_double@PLT
.LVL117:
.LBE83:
	.loc 1 143 0
	cmpq	%rbp, %r14
.LBB86:
	.loc 1 163 0
	movsd	%xmm0, (%rbx)
.LBE86:
	.loc 1 143 0
	je	.L85
.LVL118:
.L84:
.LBB87:
	.loc 1 145 0
	movq	16(%r15), %rax
	.loc 1 147 0
	movq	(%r15), %r13
	.loc 1 145 0
	movq	(%rax,%r14), %rbx
.LVL119:
	.loc 1 149 0
	testq	%rbx, %rbx
	jne	.L83
.LVL120:
.LBB84:
.LBB85:
	.loc 2 104 0
	leaq	.LC5(%rip), %rdi
	call	puts@PLT
.LVL121:
	jmp	.L83
.LVL122:
	.p2align 4,,10
	.p2align 3
.L85:
.LBE85:
.LBE84:
.LBE87:
.LBE82:
	.loc 1 140 0
	movq	8(%r15), %r15
.LVL123:
	testq	%r15, %r15
	jne	.L82
	.loc 1 166 0
	addq	$8, %rsp
	.cfi_def_cfa_offset 56
	popq	%rbx
	.cfi_def_cfa_offset 48
	popq	%rbp
	.cfi_def_cfa_offset 40
	popq	%r12
	.cfi_def_cfa_offset 32
.LVL124:
	popq	%r13
	.cfi_def_cfa_offset 24
	popq	%r14
	.cfi_def_cfa_offset 16
	popq	%r15
	.cfi_def_cfa_offset 8
.LVL125:
	ret
.LVL126:
.L96:
	.cfi_restore 3
	.cfi_restore 6
	.cfi_restore 12
	.cfi_restore 13
	.cfi_restore 14
	.cfi_restore 15
	rep ret
	.cfi_endproc
.LFE26:
	.size	fill_from_fields, .-fill_from_fields
	.p2align 4,,15
	.globl	fill_all_from_fields
	.type	fill_all_from_fields, @function
fill_all_from_fields:
.LFB31:
	.loc 1 237 0
	.cfi_startproc
.LVL127:
	pushq	%rbp
	.cfi_def_cfa_offset 16
	.cfi_offset 6, -16
	pushq	%rbx
	.cfi_def_cfa_offset 24
	.cfi_offset 3, -24
	movslq	%esi, %rbx
	movq	%rdi, %rbp
	.loc 1 241 0
	movl	%ebx, %edi
.LVL128:
	sall	$4, %edi
	.loc 1 237 0
	subq	$8, %rsp
	.cfi_def_cfa_offset 32
	.loc 1 241 0
	addl	%ebx, %edi
	leaq	0(%rbp,%rbx,8), %rbx
	call	init_random@PLT
.LVL129:
	.loc 1 243 0
	movq	8(%rbx), %rax
	.loc 1 244 0
	movl	d_nodes(%rip), %esi
	movq	(%rax), %rdi
	call	fill_from_fields
.LVL130:
	.loc 1 247 0
	movq	(%rbx), %rax
	.loc 1 248 0
	movl	d_nodes(%rip), %esi
	movq	(%rax), %rdi
	.loc 1 249 0
	addq	$8, %rsp
	.cfi_def_cfa_offset 24
	popq	%rbx
	.cfi_def_cfa_offset 16
.LVL131:
	popq	%rbp
	.cfi_def_cfa_offset 8
.LVL132:
	.loc 1 248 0
	jmp	fill_from_fields
.LVL133:
	.cfi_endproc
.LFE31:
	.size	fill_all_from_fields, .-fill_all_from_fields
	.p2align 4,,15
	.globl	localize_local
	.type	localize_local, @function
localize_local:
.LFB27:
	.loc 1 168 0
	.cfi_startproc
.LVL134:
	jmp	.L108
.LVL135:
	.p2align 4,,10
	.p2align 3
.L103:
	.loc 1 171 0 discriminator 3
	movq	8(%rdi), %rdi
.LVL136:
.L108:
	testq	%rdi, %rdi
	jne	.L103
	.loc 1 176 0
	rep ret
	.cfi_endproc
.LFE27:
	.size	localize_local, .-localize_local
	.p2align 4,,15
	.globl	do_all
	.type	do_all, @function
do_all:
.LFB34:
	.loc 1 271 0
	.cfi_startproc
.LVL137:
	.loc 1 273 0
	cmpl	$1, %edx
	.loc 1 271 0
	pushq	%r14
	.cfi_def_cfa_offset 16
	.cfi_offset 14, -16
	pushq	%r13
	.cfi_def_cfa_offset 24
	.cfi_offset 13, -24
	movl	%esi, %r13d
	pushq	%r12
	.cfi_def_cfa_offset 32
	.cfi_offset 12, -32
	movq	%rdi, %r12
	pushq	%rbp
	.cfi_def_cfa_offset 40
	.cfi_offset 6, -40
	movq	%rcx, %rbp
	pushq	%rbx
	.cfi_def_cfa_offset 48
	.cfi_offset 3, -48
	.loc 1 273 0
	jle	.L110
	movl	%edx, %ebx
	movl	%r8d, %r14d
.LVL138:
.L111:
	.loc 1 274 0
	sarl	%ebx
	movl	%r14d, %r8d
	movq	%rbp, %rcx
	leal	(%rbx,%r13), %esi
	movl	%ebx, %edx
	movq	%r12, %rdi
	call	do_all
.LVL139:
	.loc 1 273 0
	cmpl	$1, %ebx
	jne	.L111
.LVL140:
.L110:
	.loc 1 279 0
	popq	%rbx
	.cfi_def_cfa_offset 40
	.loc 1 277 0
	movl	%r13d, %esi
	movq	%r12, %rdi
	movq	%rbp, %rax
	.loc 1 279 0
	popq	%rbp
	.cfi_def_cfa_offset 32
.LVL141:
	popq	%r12
	.cfi_def_cfa_offset 24
.LVL142:
	popq	%r13
	.cfi_def_cfa_offset 16
.LVL143:
	popq	%r14
	.cfi_def_cfa_offset 8
	.loc 1 277 0
	jmp	*%rax
.LVL144:
	.cfi_endproc
.LFE34:
	.size	do_all, .-do_all
	.section	.rodata.str1.1
.LC6:
	.string	"making tables "
.LC7:
	.string	"making neighbors"
.LC8:
	.string	"updating from and coeffs"
.LC9:
	.string	"filling from fields"
.LC10:
	.string	"localizing coeffs, from_nodes"
.LC11:
	.string	"cleanup for return now"
.LC12:
	.string	"Clearing NumMisses"
.LC13:
	.string	"Returning"
	.text
	.p2align 4,,15
	.globl	initialize_graph
	.type	initialize_graph, @function
initialize_graph:
.LFB35:
	.loc 1 281 0
	.cfi_startproc
	pushq	%r12
	.cfi_def_cfa_offset 16
	.cfi_offset 12, -16
	pushq	%rbp
	.cfi_def_cfa_offset 24
	.cfi_offset 6, -24
	.loc 1 287 0
	movl	$16, %edi
	.loc 1 281 0
	pushq	%rbx
	.cfi_def_cfa_offset 32
	.cfi_offset 3, -32
	.loc 1 287 0
	call	malloc@PLT
.LVL145:
	.loc 1 288 0
	movl	$16, %edi
	.loc 1 287 0
	movq	%rax, %rbx
.LVL146:
	.loc 1 288 0
	call	malloc@PLT
.LVL147:
	movq	%rax, %r12
.LVL148:
	.loc 1 290 0
	movl	$1, %eax
.LVL149:
.LBB88:
.LBB89:
	.loc 2 104 0
	leaq	.LC6(%rip), %rdi
.LBE89:
.LBE88:
	.loc 1 290 0
	cltd
	idivl	NumNodes(%rip)
	movl	%eax, %ebp
.LVL150:
.LBB91:
.LBB90:
	.loc 2 104 0
	call	puts@PLT
.LVL151:
.LBE90:
.LBE91:
	.loc 1 293 0
	leaq	make_tables(%rip), %rcx
	xorl	%esi, %esi
	movl	%ebp, %r8d
	movl	$1, %edx
	movq	%rbx, %rdi
	call	do_all
.LVL152:
.LBB92:
.LBB93:
	.loc 2 104 0
	leaq	.LC7(%rip), %rdi
	call	puts@PLT
.LVL153:
.LBE93:
.LBE92:
	.loc 1 299 0
	leaq	make_all_neighbors(%rip), %rcx
	xorl	%esi, %esi
	movl	%ebp, %r8d
	movl	$1, %edx
	movq	%rbx, %rdi
	call	do_all
.LVL154:
.LBB94:
.LBB95:
	.loc 2 104 0
	leaq	.LC8(%rip), %rdi
	call	puts@PLT
.LVL155:
.LBE95:
.LBE94:
	.loc 1 303 0
	leaq	update_all_from_coeffs(%rip), %rcx
	xorl	%esi, %esi
	movl	%ebp, %r8d
	movl	$1, %edx
	movq	%rbx, %rdi
	call	do_all
.LVL156:
.LBB96:
.LBB97:
	.loc 2 104 0
	leaq	.LC9(%rip), %rdi
	call	puts@PLT
.LVL157:
.LBE97:
.LBE96:
	.loc 1 307 0
	leaq	fill_all_from_fields(%rip), %rcx
	xorl	%esi, %esi
	movl	%ebp, %r8d
	movl	$1, %edx
	movq	%rbx, %rdi
	call	do_all
.LVL158:
.LBB98:
.LBB99:
	.loc 2 104 0
	leaq	.LC10(%rip), %rdi
	call	puts@PLT
.LVL159:
.LBE99:
.LBE98:
	.loc 1 310 0
	leaq	localize(%rip), %rcx
	xorl	%esi, %esi
	movl	%ebp, %r8d
	movl	$1, %edx
	movq	%rbx, %rdi
	call	do_all
.LVL160:
.LBB100:
.LBB101:
	.loc 2 104 0
	leaq	.LC11(%rip), %rdi
	call	puts@PLT
.LVL161:
.LBE101:
.LBE100:
	.loc 1 315 0
	movl	NumNodes(%rip), %eax
	testl	%eax, %eax
	jle	.L115
.LVL162:
.LBB102:
	.loc 1 317 0
	movq	(%rbx), %rax
	movq	(%rax), %rax
.LVL163:
	.loc 1 319 0
	movq	%rax, (%r12)
.LVL164:
	.loc 1 322 0
	movq	8(%rbx), %rax
.LVL165:
	movq	(%rax), %rax
.LVL166:
	.loc 1 323 0
	movq	%rax, 8(%r12)
.LVL167:
.L115:
.LBE102:
.LBB103:
.LBB104:
	.loc 2 104 0
	leaq	.LC12(%rip), %rdi
	call	puts@PLT
.LVL168:
.LBE104:
.LBE103:
	.loc 1 342 0
	leaq	clear_nummiss(%rip), %rcx
	movl	%ebp, %r8d
	movq	%rbx, %rdi
	movl	$1, %edx
	xorl	%esi, %esi
	call	do_all
.LVL169:
.LBB105:
.LBB106:
	.loc 2 104 0
	leaq	.LC13(%rip), %rdi
	call	puts@PLT
.LVL170:
.LBE106:
.LBE105:
	.loc 1 346 0
	movq	%r12, %rax
	popq	%rbx
	.cfi_def_cfa_offset 24
.LVL171:
	popq	%rbp
	.cfi_def_cfa_offset 16
.LVL172:
	popq	%r12
	.cfi_def_cfa_offset 8
.LVL173:
	ret
	.cfi_endproc
.LFE35:
	.size	initialize_graph, .-initialize_graph
	.comm	local_p,4,4
	.comm	d_nodes,4,4
	.comm	n_nodes,4,4
	.comm	NumMisses,4,4
.Letext0:
	.file 3 "/usr/lib/gcc/x86_64-linux-gnu/7/include/stddef.h"
	.file 4 "/usr/include/x86_64-linux-gnu/bits/types.h"
	.file 5 "/usr/include/x86_64-linux-gnu/bits/libio.h"
	.file 6 "/usr/include/stdio.h"
	.file 7 "../olden/em3d/src/em3d.h"
	.file 8 "/usr/include/stdlib.h"
	.file 9 "../olden/em3d/src/util.h"
	.file 10 "<built-in>"
	.section	.note.GNU-stack,"",@progbits
