	.file	"newbh.c"
	.text
.Ltext0:
	.section	.rodata.str1.1,"aMS",@progbits,1
.LC0:
	.string	"Assertion Failure #%d"
	.text
	.p2align 4,,15
	.globl	testdata
	.type	testdata, @function
testdata:
.LFB24:
	.file 1 "../olden/bh/src/newbh.c"
	.loc 1 195 0
	.cfi_startproc
.LVL0:
.LBB183:
.LBB184:
	.file 2 "/usr/include/x86_64-linux-gnu/bits/stdio2.h"
	.loc 2 104 0
	leaq	.LC0(%rip), %rsi
.LBE184:
.LBE183:
	.loc 1 195 0
	subq	$8, %rsp
	.cfi_def_cfa_offset 16
.LBB186:
.LBB185:
	.loc 2 104 0
	movl	$99, %edx
	movl	$1, %edi
	xorl	%eax, %eax
	call	__printf_chk@PLT
.LVL1:
.LBE185:
.LBE186:
	.loc 1 206 0
	call	abort@PLT
.LVL2:
	.cfi_endproc
.LFE24:
	.size	testdata, .-testdata
	.p2align 4,,15
	.globl	freetree
	.type	freetree, @function
freetree:
.LFB27:
	.loc 1 322 0
	.cfi_startproc
.LVL3:
	.loc 1 327 0
	testq	%rdi, %rdi
	je	.L4
	.loc 1 327 0 discriminator 1
	cmpw	$1, (%rdi)
	je	.L4
	jmp	freetree.part.0
.LVL4:
	.p2align 4,,10
	.p2align 3
.L4:
	.loc 1 340 0
	rep ret
	.cfi_endproc
.LFE27:
	.size	freetree, .-freetree
	.p2align 4,,15
	.type	freetree.part.0, @function
freetree.part.0:
.LFB52:
	.loc 1 321 0
	.cfi_startproc
.LVL5:
	pushq	%r12
	.cfi_def_cfa_offset 16
	.cfi_offset 12, -16
	movq	%rdi, %r12
	pushq	%rbp
	.cfi_def_cfa_offset 24
	.cfi_offset 6, -24
	leaq	40(%rdi), %rbp
	pushq	%rbx
	.cfi_def_cfa_offset 32
	.cfi_offset 3, -32
	leaq	104(%rdi), %rbx
	jmp	.L11
.LVL6:
	.p2align 4,,10
	.p2align 3
.L10:
	subq	$8, %rbx
	.loc 1 331 0
	cmpq	%rbp, %rbx
	je	.L19
.LVL7:
.L11:
	.loc 1 332 0
	movq	(%rbx), %rdi
.LVL8:
	.loc 1 333 0
	testq	%rdi, %rdi
	je	.L10
	subq	$8, %rbx
	.loc 1 334 0
	call	freetree
.LVL9:
	.loc 1 331 0
	cmpq	%rbp, %rbx
	jne	.L11
.L19:
.LVL10:
.LBB187:
.LBB188:
	.loc 1 350 0
	cmpw	$1, (%r12)
	je	.L20
	.loc 1 355 0
	movq	cp_free_list(%rip), %rax
	.loc 1 356 0
	movq	%r12, cp_free_list(%rip)
.LBE188:
.LBE187:
	.loc 1 340 0
	popq	%rbx
	.cfi_remember_state
	.cfi_def_cfa_offset 24
	popq	%rbp
	.cfi_def_cfa_offset 16
.LBB192:
.LBB189:
	.loc 1 355 0
	movq	%rax, 112(%r12)
.LBE189:
.LBE192:
	.loc 1 340 0
	popq	%r12
	.cfi_def_cfa_offset 8
.LVL11:
	ret
.LVL12:
	.p2align 4,,10
	.p2align 3
.L20:
	.cfi_restore_state
.LBB193:
.LBB190:
	.loc 1 351 0
	movq	bp_free_list(%rip), %rax
	.loc 1 352 0
	movq	%r12, bp_free_list(%rip)
.LBE190:
.LBE193:
	.loc 1 340 0
	popq	%rbx
	.cfi_def_cfa_offset 24
	popq	%rbp
	.cfi_def_cfa_offset 16
.LBB194:
.LBB191:
	.loc 1 351 0
	movq	%rax, 128(%r12)
.LBE191:
.LBE194:
	.loc 1 340 0
	popq	%r12
	.cfi_def_cfa_offset 8
.LVL13:
	ret
	.cfi_endproc
.LFE52:
	.size	freetree.part.0, .-freetree.part.0
	.p2align 4,,15
	.globl	freetree1
	.type	freetree1, @function
freetree1:
.LFB26:
	.loc 1 313 0
	.cfi_startproc
.LVL14:
.LBB195:
.LBB196:
	.loc 1 327 0
	testq	%rdi, %rdi
	je	.L21
	.loc 1 327 0
	cmpw	$1, (%rdi)
	je	.L21
	jmp	freetree.part.0
.LVL15:
	.p2align 4,,10
	.p2align 3
.L21:
.LBE196:
.LBE195:
	.loc 1 318 0
	rep ret
	.cfi_endproc
.LFE26:
	.size	freetree1, .-freetree1
	.p2align 4,,15
	.globl	my_free
	.type	my_free, @function
my_free:
.LFB28:
	.loc 1 349 0
	.cfi_startproc
.LVL16:
	.loc 1 350 0
	cmpw	$1, (%rdi)
	je	.L29
	.loc 1 355 0
	movq	cp_free_list(%rip), %rax
	.loc 1 356 0
	movq	%rdi, cp_free_list(%rip)
	.loc 1 355 0
	movq	%rax, 112(%rdi)
	.loc 1 358 0
	ret
	.p2align 4,,10
	.p2align 3
.L29:
	.loc 1 351 0
	movq	bp_free_list(%rip), %rax
	.loc 1 352 0
	movq	%rdi, bp_free_list(%rip)
	.loc 1 351 0
	movq	%rax, 128(%rdi)
	ret
	.cfi_endproc
.LFE28:
	.size	my_free, .-my_free
	.p2align 4,,15
	.globl	ubody_alloc
	.type	ubody_alloc, @function
ubody_alloc:
.LFB29:
	.loc 1 362 0
	.cfi_startproc
.LVL17:
	pushq	%rbx
	.cfi_def_cfa_offset 16
	.cfi_offset 3, -16
	.loc 1 362 0
	movl	%edi, %ebx
	.loc 1 364 0
	movl	$144, %edi
.LVL18:
	call	malloc@PLT
.LVL19:
	.loc 1 366 0
	movl	$1, %edx
	.loc 1 367 0
	movl	%ebx, 40(%rax)
	.loc 1 368 0
	movq	$0, 136(%rax)
	.loc 1 366 0
	movw	%dx, (%rax)
	.loc 1 369 0
	movl	%ebx, 44(%rax)
	.loc 1 372 0
	popq	%rbx
	.cfi_def_cfa_offset 8
.LVL20:
	ret
	.cfi_endproc
.LFE29:
	.size	ubody_alloc, .-ubody_alloc
	.p2align 4,,15
	.globl	cell_alloc
	.type	cell_alloc, @function
cell_alloc:
.LFB30:
	.loc 1 376 0
	.cfi_startproc
.LVL21:
	.loc 1 379 0
	movq	cp_free_list(%rip), %rax
	.loc 1 376 0
	pushq	%rbx
	.cfi_def_cfa_offset 16
	.cfi_offset 3, -16
	.loc 1 376 0
	movl	%edi, %ebx
	.loc 1 379 0
	testq	%rax, %rax
	je	.L33
.LVL22:
	.loc 1 381 0
	movq	112(%rax), %rdx
	movq	%rdx, cp_free_list(%rip)
.LVL23:
.L34:
	.loc 1 387 0
	movl	$2, %edx
	.loc 1 388 0
	movl	%ebx, 40(%rax)
.LVL24:
	.loc 1 390 0
	movq	$0, 48(%rax)
.LVL25:
	.loc 1 387 0
	movw	%dx, (%rax)
	.loc 1 390 0
	movq	$0, 56(%rax)
.LVL26:
	movq	$0, 64(%rax)
.LVL27:
	movq	$0, 72(%rax)
.LVL28:
	movq	$0, 80(%rax)
.LVL29:
	movq	$0, 88(%rax)
.LVL30:
	movq	$0, 96(%rax)
.LVL31:
	movq	$0, 104(%rax)
.LVL32:
	.loc 1 393 0
	popq	%rbx
	.cfi_remember_state
	.cfi_def_cfa_offset 8
.LVL33:
	ret
.LVL34:
	.p2align 4,,10
	.p2align 3
.L33:
	.cfi_restore_state
	.loc 1 385 0
	movl	$120, %edi
	call	malloc@PLT
.LVL35:
	jmp	.L34
	.cfi_endproc
.LFE30:
	.size	cell_alloc, .-cell_alloc
	.p2align 4,,15
	.globl	uniform_testdata
	.type	uniform_testdata, @function
uniform_testdata:
.LFB31:
	.loc 1 400 0
	.cfi_startproc
.LVL36:
	.loc 1 406 0
	pxor	%xmm3, %xmm3
	.loc 1 400 0
	pushq	%r15
	.cfi_def_cfa_offset 16
	.cfi_offset 15, -16
	pushq	%r14
	.cfi_def_cfa_offset 24
	.cfi_offset 14, -24
	pushq	%r13
	.cfi_def_cfa_offset 32
	.cfi_offset 13, -32
	movl	%esi, %r14d
	pushq	%r12
	.cfi_def_cfa_offset 40
	.cfi_offset 12, -40
	pushq	%rbp
	.cfi_def_cfa_offset 48
	.cfi_offset 6, -48
	.loc 1 406 0
	cvtsi2sd	%ecx, %xmm3
	.loc 1 400 0
	pushq	%rbx
	.cfi_def_cfa_offset 56
	.cfi_offset 3, -56
	movl	%edx, %ebx
	subq	$168, %rsp
	.cfi_def_cfa_offset 224
	.loc 1 400 0
	movq	%rdi, 72(%rsp)
.LBB197:
.LBB198:
	.loc 1 364 0
	movl	$144, %edi
.LVL37:
.LBE198:
.LBE197:
	.loc 1 400 0
	movl	%edx, 52(%rsp)
	movq	%fs:40, %rax
	movq	%rax, 152(%rsp)
	xorl	%eax, %eax
.LBB201:
	.loc 1 415 0
	movq	$0x000000000, 80(%rsp)
	movq	$0x000000000, 88(%rsp)
	movq	$0x000000000, 96(%rsp)
.LBE201:
.LBB202:
	.loc 1 416 0
	movq	$0x000000000, 104(%rsp)
	movq	$0x000000000, 112(%rsp)
	movq	$0x000000000, 120(%rsp)
.LBE202:
	.loc 1 406 0
	mulsd	.LC2(%rip), %xmm3
	movsd	%xmm3, (%rsp)
.LVL38:
.LBB203:
.LBB199:
	.loc 1 364 0
	call	malloc@PLT
.LVL39:
	.loc 1 366 0
	movl	$1, %edx
.LBE199:
.LBE203:
	.loc 1 420 0
	testl	%ebx, %ebx
.LBB204:
.LBB200:
	.loc 1 364 0
	movq	%rax, 64(%rsp)
.LVL40:
	.loc 1 366 0
	movw	%dx, (%rax)
	.loc 1 367 0
	movl	%r14d, 40(%rax)
	.loc 1 368 0
	movq	$0, 136(%rax)
	.loc 1 369 0
	movl	%r14d, 44(%rax)
.LVL41:
.LBE200:
.LBE204:
	.loc 1 420 0
	jle	.L46
	pxor	%xmm5, %xmm5
	movq	%rax, %rbp
	.loc 1 447 0
	movsd	(%rsp), %xmm3
	.loc 1 420 0
	movq	$0x000000000, 32(%rsp)
	xorl	%r13d, %r13d
	cvtsi2sd	52(%rsp), %xmm5
	movsd	%xmm5, 56(%rsp)
.LVL42:
	.p2align 4,,10
	.p2align 3
.L44:
.LBB205:
.LBB206:
	.loc 1 364 0
	movl	$144, %edi
	movsd	%xmm3, (%rsp)
.LVL43:
	call	malloc@PLT
.LVL44:
.LBE206:
.LBE205:
	.loc 1 428 0
	movsd	.LC3(%rip), %xmm0
.LBB210:
.LBB207:
	.loc 1 364 0
	movq	%rax, %rbx
.LVL45:
.LBE207:
.LBE210:
	.loc 1 429 0
	movsd	(%rsp), %xmm3
.LBB211:
.LBB208:
	.loc 1 367 0
	movl	%r14d, 40(%rax)
.LBE208:
.LBE211:
	.loc 1 428 0
	divsd	56(%rsp), %xmm0
.LBB212:
.LBB209:
	.loc 1 368 0
	movq	$0, 136(%rax)
	.loc 1 369 0
	movl	%r14d, 44(%rax)
.LVL46:
.LBE209:
.LBE212:
	.loc 1 425 0
	movq	%rax, 128(%rbp)
.LVL47:
	.loc 1 427 0
	movl	$1, %eax
.LVL48:
	movw	%ax, (%rbx)
	.loc 1 429 0
	movl	$1, %eax
	.loc 1 428 0
	movsd	%xmm0, 8(%rbx)
	.loc 1 429 0
	movapd	%xmm3, %xmm0
	call	my_rand@PLT
.LVL49:
	.loc 1 430 0
	movapd	%xmm0, %xmm2
	movsd	%xmm0, (%rsp)
	pxor	%xmm0, %xmm0
.LVL50:
	movl	$3, %eax
	movsd	.LC4(%rip), %xmm1
	call	xrand@PLT
.LVL51:
	.loc 1 431 0
	movsd	.LC5(%rip), %xmm1
	call	pow@PLT
.LVL52:
	subsd	.LC3(%rip), %xmm0
.LVL53:
	pxor	%xmm7, %xmm7
	movsd	(%rsp), %xmm3
	ucomisd	%xmm0, %xmm7
	ja	.L53
.LVL54:
.L38:
	leaq	16(%rbx), %r12
	leaq	40(%rbx), %rbp
.L39:
.LVL55:
	.loc 1 437 0 discriminator 3
	movapd	%xmm3, %xmm0
	movl	$1, %eax
	addq	$8, %r12
	call	my_rand@PLT
.LVL56:
	.loc 1 438 0 discriminator 3
	movapd	%xmm0, %xmm2
	movsd	%xmm0, (%rsp)
	pxor	%xmm0, %xmm0
.LVL57:
	movl	$3, %eax
	movsd	.LC4(%rip), %xmm1
	call	xrand@PLT
.LVL58:
	.loc 1 439 0 discriminator 3
	movsd	.LC6(%rip), %xmm1
	.loc 1 436 0 discriminator 3
	movsd	(%rsp), %xmm3
	.loc 1 439 0 discriminator 3
	mulsd	%xmm0, %xmm1
	movsd	%xmm1, -8(%r12)
.LVL59:
	.loc 1 436 0 discriminator 3
	cmpq	%rbp, %r12
	jne	.L39
	movsd	%xmm0, 40(%rsp)
.LVL60:
.LBB213:
	.loc 1 442 0
	movsd	88(%rsp), %xmm0
.LVL61:
	movsd	32(%rsp), %xmm7
	addsd	24(%rbx), %xmm0
	addsd	16(%rbx), %xmm7
	movsd	%xmm0, 88(%rsp)
	movsd	96(%rsp), %xmm0
	movsd	%xmm7, 32(%rsp)
	addsd	32(%rbx), %xmm0
	movsd	%xmm7, 80(%rsp)
.LVL62:
	movsd	%xmm0, 96(%rsp)
.LVL63:
	.p2align 4,,10
	.p2align 3
.L40:
.LBE213:
	.loc 1 444 0 discriminator 1
	movapd	%xmm3, %xmm0
	movl	$1, %eax
	call	my_rand@PLT
.LVL64:
	.loc 1 445 0 discriminator 1
	movapd	%xmm0, %xmm2
	movsd	%xmm0, 8(%rsp)
	pxor	%xmm0, %xmm0
.LVL65:
	movl	$3, %eax
	movsd	.LC3(%rip), %xmm1
	call	xrand@PLT
.LVL66:
	.loc 1 446 0 discriminator 1
	movsd	8(%rsp), %xmm3
	movl	$1, %eax
	.loc 1 445 0 discriminator 1
	movsd	%xmm0, (%rsp)
.LVL67:
	.loc 1 446 0 discriminator 1
	movapd	%xmm3, %xmm0
	call	my_rand@PLT
.LVL68:
	.loc 1 447 0 discriminator 1
	movapd	%xmm0, %xmm2
	movsd	%xmm0, 24(%rsp)
	pxor	%xmm0, %xmm0
.LVL69:
	movl	$3, %eax
	movsd	.LC7(%rip), %xmm1
	call	xrand@PLT
.LVL70:
	.loc 1 448 0 discriminator 1
	movsd	(%rsp), %xmm6
	.loc 1 447 0 discriminator 1
	movsd	%xmm0, 16(%rsp)
.LVL71:
	.loc 1 448 0 discriminator 1
	movapd	%xmm6, %xmm2
	movsd	.LC3(%rip), %xmm0
.LVL72:
	movsd	.LC8(%rip), %xmm1
	mulsd	%xmm6, %xmm2
	subsd	%xmm2, %xmm0
	movsd	%xmm2, 8(%rsp)
	call	pow@PLT
.LVL73:
	movsd	8(%rsp), %xmm2
	movsd	16(%rsp), %xmm4
	mulsd	%xmm0, %xmm2
	movsd	24(%rsp), %xmm3
	ucomisd	%xmm2, %xmm4
	ja	.L40
	.loc 1 449 0
	movsd	40(%rsp), %xmm0
	leaq	48(%rbx), %r12
	leaq	72(%rbx), %rbp
	movsd	.LC9(%rip), %xmm1
	mulsd	%xmm0, %xmm0
	movsd	%xmm3, 16(%rsp)
.LVL74:
	addsd	.LC3(%rip), %xmm0
	call	pow@PLT
.LVL75:
	movsd	.LC10(%rip), %xmm1
	movsd	16(%rsp), %xmm3
	mulsd	(%rsp), %xmm1
	divsd	%xmm0, %xmm1
.LVL76:
	.loc 1 452 0
	movsd	.LC11(%rip), %xmm0
	mulsd	%xmm1, %xmm0
	movsd	%xmm0, 8(%rsp)
.LVL77:
	.p2align 4,,10
	.p2align 3
.L42:
	movq	%r12, %r15
.LVL78:
.L41:
	.loc 1 456 0 discriminator 3
	movapd	%xmm3, %xmm0
	movl	$1, %eax
	addq	$8, %r15
	call	my_rand@PLT
.LVL79:
	.loc 1 457 0 discriminator 3
	movsd	.LC3(%rip), %xmm1
	movl	$3, %eax
	movapd	%xmm0, %xmm2
	movsd	%xmm0, (%rsp)
	movsd	.LC12(%rip), %xmm0
.LVL80:
	call	xrand@PLT
.LVL81:
	movsd	%xmm0, -8(%r15)
	.loc 1 455 0 discriminator 3
	cmpq	%rbp, %r15
	movsd	(%rsp), %xmm3
	jne	.L41
.LVL82:
.LBB214:
	.loc 1 459 0
	movsd	48(%rbx), %xmm5
	movsd	56(%rbx), %xmm4
	movapd	%xmm5, %xmm1
	pxor	%xmm7, %xmm7
	movapd	%xmm4, %xmm0
	mulsd	%xmm5, %xmm1
	mulsd	%xmm4, %xmm0
	movsd	64(%rbx), %xmm2
	addsd	%xmm7, %xmm1
.LVL83:
	addsd	%xmm0, %xmm1
.LVL84:
	movapd	%xmm2, %xmm0
	mulsd	%xmm2, %xmm0
	addsd	%xmm1, %xmm0
.LVL85:
.LBE214:
	.loc 1 460 0
	ucomisd	.LC3(%rip), %xmm0
	ja	.L42
	ucomisd	%xmm0, %xmm7
	.loc 1 461 0
	sqrtsd	%xmm0, %xmm1
	ja	.L54
.LVL86:
.L43:
	movsd	8(%rsp), %xmm0
	.loc 1 420 0
	addl	$1, %r13d
.LVL87:
	cmpl	%r13d, 52(%rsp)
	movq	%rbx, %rbp
	.loc 1 461 0
	divsd	%xmm1, %xmm0
.LVL88:
.LBB215:
	.loc 1 462 0
	mulsd	%xmm0, %xmm5
	mulsd	%xmm0, %xmm4
	mulsd	%xmm0, %xmm2
	movsd	%xmm5, 48(%rbx)
.LVL89:
.LBE215:
.LBB216:
	.loc 1 463 0
	addsd	104(%rsp), %xmm5
.LBE216:
.LBB217:
	.loc 1 462 0
	movsd	%xmm4, 56(%rbx)
.LVL90:
.LBE217:
.LBB218:
	.loc 1 463 0
	addsd	112(%rsp), %xmm4
.LBE218:
.LBB219:
	.loc 1 462 0
	movsd	%xmm2, 64(%rbx)
.LVL91:
.LBE219:
.LBB220:
	.loc 1 463 0
	addsd	120(%rsp), %xmm2
	movsd	%xmm5, 104(%rsp)
.LVL92:
	movsd	%xmm4, 112(%rsp)
.LVL93:
	movsd	%xmm2, 120(%rsp)
.LVL94:
.LBE220:
	.loc 1 420 0
	jne	.L44
.LVL95:
.L37:
	.loc 1 473 0
	movq	64(%rsp), %rax
	.loc 1 467 0
	movq	$0, 128(%rbx)
	.loc 1 473 0
	movdqa	80(%rsp), %xmm0
	movq	128(%rax), %rax
	movq	%rbx, 136(%rsp)
	.loc 1 474 0
	movq	152(%rsp), %rdx
	xorq	%fs:40, %rdx
	.loc 1 473 0
	movq	%rax, 128(%rsp)
	movq	72(%rsp), %rax
	movups	%xmm0, (%rax)
	movdqa	96(%rsp), %xmm0
	movups	%xmm0, 16(%rax)
	movdqa	112(%rsp), %xmm0
	movups	%xmm0, 32(%rax)
	movdqa	128(%rsp), %xmm0
	movups	%xmm0, 48(%rax)
	.loc 1 474 0
	jne	.L55
	addq	$168, %rsp
	.cfi_remember_state
	.cfi_def_cfa_offset 56
	popq	%rbx
	.cfi_def_cfa_offset 48
	popq	%rbp
	.cfi_def_cfa_offset 40
	popq	%r12
	.cfi_def_cfa_offset 32
	popq	%r13
	.cfi_def_cfa_offset 24
	popq	%r14
	.cfi_def_cfa_offset 16
.LVL96:
	popq	%r15
	.cfi_def_cfa_offset 8
	ret
.LVL97:
.L46:
	.cfi_restore_state
	.loc 1 420 0
	movq	64(%rsp), %rbx
.LVL98:
	jmp	.L37
.LVL99:
.L53:
	.loc 1 433 0
	call	sqrt@PLT
.LVL100:
	movsd	(%rsp), %xmm3
	jmp	.L38
.LVL101:
.L54:
	movsd	%xmm3, 16(%rsp)
	movsd	%xmm1, (%rsp)
	.loc 1 461 0
	call	sqrt@PLT
.LVL102:
	movsd	48(%rbx), %xmm5
	movsd	56(%rbx), %xmm4
	movsd	64(%rbx), %xmm2
	movsd	16(%rsp), %xmm3
	movsd	(%rsp), %xmm1
	jmp	.L43
.LVL103:
.L55:
	.loc 1 474 0
	call	__stack_chk_fail@PLT
.LVL104:
	.cfi_endproc
.LFE31:
	.size	uniform_testdata, .-uniform_testdata
	.p2align 4,,15
	.globl	vp
	.type	vp, @function
vp:
.LFB34:
	.loc 1 551 0
	.cfi_startproc
.LVL105:
	.loc 1 564 0
	testq	%rdi, %rdi
	je	.L104
	.loc 1 551 0
	subq	$8, %rsp
	.cfi_def_cfa_offset 16
.LBB221:
	.loc 1 568 0
	movsd	.LC16(%rip), %xmm11
.LBE221:
.LBB222:
	.loc 1 580 0
	movq	.LC13(%rip), %xmm0
	movsd	.LC14(%rip), %xmm8
.LBE222:
.LBB235:
	.loc 1 601 0
	movapd	%xmm11, %xmm10
.LBE235:
.LBB236:
	.loc 1 595 0
	movsd	.LC15(%rip), %xmm7
.LBE236:
.LBB249:
	.loc 1 615 0
	movsd	.LC17(%rip), %xmm9
	.p2align 4,,10
	.p2align 3
.L57:
.LVL106:
.LBE249:
	.loc 1 566 0
	testl	%esi, %esi
.LBB250:
	.loc 1 565 0
	movsd	96(%rdi), %xmm3
.LVL107:
	movsd	104(%rdi), %xmm4
.LVL108:
	movsd	112(%rdi), %xmm5
.LVL109:
.LBE250:
	.loc 1 566 0
	jle	.L89
.LVL110:
.LBB251:
	.loc 1 567 0
	movapd	%xmm4, %xmm2
	movapd	%xmm5, %xmm1
	movapd	%xmm3, %xmm6
	subsd	80(%rdi), %xmm2
	subsd	88(%rdi), %xmm1
	subsd	72(%rdi), %xmm6
.LBE251:
.LBB252:
	.loc 1 568 0
	mulsd	%xmm11, %xmm2
	mulsd	%xmm11, %xmm1
	mulsd	%xmm11, %xmm6
.LBE252:
.LBB253:
	.loc 1 570 0
	addsd	56(%rdi), %xmm2
.LVL111:
	addsd	64(%rdi), %xmm1
.LVL112:
	addsd	48(%rdi), %xmm6
.LBE253:
.LBB254:
	.loc 1 571 0
	movsd	%xmm2, 56(%rdi)
	movsd	%xmm1, 64(%rdi)
	movsd	%xmm6, 48(%rdi)
.LVL113:
.L89:
.LBE254:
.LBB255:
	.loc 1 574 0
	movsd	16(%rdi), %xmm6
.LVL114:
	.loc 1 575 0
	movsd	24(%rdi), %xmm14
.LVL115:
	.loc 1 577 0
	ucomisd	%xmm6, %xmm6
	.loc 1 576 0
	movsd	32(%rdi), %xmm13
.LVL116:
	.loc 1 577 0
	jp	.L107
	.loc 1 578 0
	ucomisd	%xmm14, %xmm14
	jp	.L108
	.loc 1 579 0
	ucomisd	%xmm13, %xmm13
	jp	.L109
	.loc 1 580 0
	movapd	%xmm6, %xmm1
	andpd	%xmm0, %xmm1
	ucomisd	%xmm1, %xmm8
	jbe	.L110
	.loc 1 581 0
	movapd	%xmm14, %xmm1
	andpd	%xmm0, %xmm1
	ucomisd	%xmm1, %xmm8
	jbe	.L111
	.loc 1 582 0
	movapd	%xmm13, %xmm1
	andpd	%xmm0, %xmm1
	ucomisd	%xmm1, %xmm8
	jbe	.L97
.LVL117:
.LBE255:
.LBB256:
	.loc 1 592 0
	ucomisd	%xmm3, %xmm3
.LBE256:
.LBB257:
	.loc 1 587 0
	movsd	%xmm3, 72(%rdi)
.LVL118:
	movsd	%xmm4, 80(%rdi)
.LVL119:
	movsd	%xmm5, 88(%rdi)
.LVL120:
.LBE257:
.LBB258:
	.loc 1 592 0
	jp	.L112
.LVL121:
	.loc 1 593 0
	ucomisd	%xmm4, %xmm4
	jp	.L113
	.loc 1 594 0
	ucomisd	%xmm5, %xmm5
	jp	.L114
	.loc 1 595 0
	movapd	%xmm3, %xmm1
	andpd	%xmm0, %xmm1
	ucomisd	%xmm1, %xmm7
	jbe	.L115
	.loc 1 596 0
	movapd	%xmm4, %xmm1
	andpd	%xmm0, %xmm1
	ucomisd	%xmm1, %xmm7
	jbe	.L116
	.loc 1 597 0
	movapd	%xmm5, %xmm1
	andpd	%xmm0, %xmm1
	ucomisd	%xmm1, %xmm7
	jbe	.L99
.LVL122:
.LBE258:
.LBB259:
	.loc 1 601 0
	mulsd	%xmm10, %xmm3
.LVL123:
	mulsd	%xmm10, %xmm4
.LVL124:
	mulsd	%xmm10, %xmm5
.LVL125:
.LBE259:
.LBB260:
	.loc 1 604 0
	movsd	56(%rdi), %xmm2
.LBE260:
.LBB273:
	.loc 1 601 0
	movapd	%xmm3, %xmm12
.LVL126:
.LBE273:
.LBB274:
	.loc 1 603 0
	movsd	48(%rdi), %xmm3
.LVL127:
	.loc 1 605 0
	movsd	64(%rdi), %xmm1
.LVL128:
	.loc 1 606 0
	ucomisd	%xmm3, %xmm3
	jp	.L117
	.loc 1 607 0
	ucomisd	%xmm2, %xmm2
	jp	.L118
	.loc 1 608 0
	ucomisd	%xmm1, %xmm1
	jp	.L119
	.loc 1 609 0
	movapd	%xmm3, %xmm15
	andpd	%xmm0, %xmm15
	ucomisd	%xmm15, %xmm7
	jbe	.L120
	.loc 1 610 0
	movapd	%xmm2, %xmm15
	andpd	%xmm0, %xmm15
	ucomisd	%xmm15, %xmm7
	jbe	.L121
	.loc 1 611 0
	movapd	%xmm1, %xmm15
	andpd	%xmm0, %xmm15
	ucomisd	%xmm15, %xmm7
	jbe	.L101
.LVL129:
.LBE274:
.LBB275:
	.loc 1 614 0
	addsd	%xmm12, %xmm3
.LVL130:
	addsd	%xmm4, %xmm2
.LVL131:
	addsd	%xmm5, %xmm1
.LVL132:
.LBE275:
.LBB276:
	.loc 1 615 0
	movapd	%xmm3, %xmm15
.LBE276:
.LBB277:
	.loc 1 618 0
	addsd	%xmm12, %xmm3
.LBE277:
.LBB278:
	.loc 1 615 0
	mulsd	%xmm9, %xmm15
.LBE278:
.LBB279:
	.loc 1 618 0
	movsd	%xmm3, 48(%rdi)
.LVL133:
.LBE279:
.LBB280:
	.loc 1 616 0
	addsd	%xmm15, %xmm6
.LVL134:
.LBE280:
.LBB281:
	.loc 1 615 0
	movapd	%xmm2, %xmm15
.LBE281:
.LBB282:
	.loc 1 618 0
	addsd	%xmm4, %xmm2
.LBE282:
.LBB283:
	.loc 1 615 0
	mulsd	%xmm9, %xmm15
.LBE283:
.LBB284:
	.loc 1 623 0
	ucomisd	%xmm6, %xmm6
.LBE284:
.LBB297:
	.loc 1 617 0
	movsd	%xmm6, 16(%rdi)
.LVL135:
.LBE297:
.LBB298:
	.loc 1 616 0
	addsd	%xmm15, %xmm14
.LVL136:
.LBE298:
.LBB299:
	.loc 1 615 0
	movapd	%xmm1, %xmm15
.LBE299:
.LBB300:
	.loc 1 618 0
	addsd	%xmm5, %xmm1
	movsd	%xmm2, 56(%rdi)
.LVL137:
.LBE300:
.LBB301:
	.loc 1 615 0
	mulsd	%xmm9, %xmm15
.LBE301:
.LBB302:
	.loc 1 617 0
	movsd	%xmm14, 24(%rdi)
.LVL138:
.LBE302:
.LBB303:
	.loc 1 618 0
	movsd	%xmm1, 64(%rdi)
.LVL139:
.LBE303:
.LBB304:
	.loc 1 616 0
	addsd	%xmm15, %xmm13
.LVL140:
.LBE304:
.LBB305:
	.loc 1 617 0
	movsd	%xmm13, 32(%rdi)
.LVL141:
.LBE305:
.LBB306:
	.loc 1 623 0
	jp	.L122
	.loc 1 624 0
	ucomisd	%xmm14, %xmm14
	jp	.L123
	.loc 1 625 0
	ucomisd	%xmm13, %xmm13
	jp	.L124
	.loc 1 626 0
	andpd	%xmm0, %xmm6
.LVL142:
	ucomisd	%xmm6, %xmm7
	jbe	.L125
	.loc 1 627 0
	movapd	%xmm14, %xmm2
	andpd	%xmm0, %xmm2
	ucomisd	%xmm2, %xmm7
	jbe	.L126
	.loc 1 628 0
	movapd	%xmm13, %xmm1
	andpd	%xmm0, %xmm1
	ucomisd	%xmm1, %xmm7
	jbe	.L127
.LBE306:
	.loc 1 564 0
	movq	136(%rdi), %rdi
.LVL143:
	.loc 1 564 0
	testq	%rdi, %rdi
	jne	.L57
	.loc 1 634 0
	addq	$8, %rsp
	.cfi_def_cfa_offset 8
	ret
.LVL144:
.L104:
	rep ret
.LVL145:
.L127:
	.cfi_def_cfa_offset 16
.LBB307:
.LBB285:
.LBB286:
	.loc 2 104 0
	leaq	.LC0(%rip), %rsi
.LVL146:
	movl	$64, %edx
	movl	$1, %edi
.LVL147:
	xorl	%eax, %eax
	call	__printf_chk@PLT
.LVL148:
.LBE286:
.LBE285:
	.loc 1 628 0
	call	abort@PLT
.LVL149:
.L126:
.LBB287:
.LBB288:
	.loc 2 104 0
	leaq	.LC0(%rip), %rsi
.LVL150:
	movl	$65, %edx
	movl	$1, %edi
.LVL151:
	xorl	%eax, %eax
	call	__printf_chk@PLT
.LVL152:
.LBE288:
.LBE287:
	.loc 1 627 0
	call	abort@PLT
.LVL153:
.L125:
.LBB289:
.LBB290:
	.loc 2 104 0
	leaq	.LC0(%rip), %rsi
.LVL154:
	movl	$66, %edx
	movl	$1, %edi
.LVL155:
	xorl	%eax, %eax
	call	__printf_chk@PLT
.LVL156:
.LBE290:
.LBE289:
	.loc 1 626 0
	call	abort@PLT
.LVL157:
.L124:
.LBB291:
.LBB292:
	.loc 2 104 0
	leaq	.LC0(%rip), %rsi
.LVL158:
	movl	$67, %edx
	movl	$1, %edi
.LVL159:
	xorl	%eax, %eax
	call	__printf_chk@PLT
.LVL160:
.LBE292:
.LBE291:
	.loc 1 625 0
	call	abort@PLT
.LVL161:
.L123:
.LBB293:
.LBB294:
	.loc 2 104 0
	leaq	.LC0(%rip), %rsi
.LVL162:
	movl	$68, %edx
	movl	$1, %edi
.LVL163:
	xorl	%eax, %eax
	call	__printf_chk@PLT
.LVL164:
.LBE294:
.LBE293:
	.loc 1 624 0
	call	abort@PLT
.LVL165:
.L122:
.LBB295:
.LBB296:
	.loc 2 104 0
	leaq	.LC0(%rip), %rsi
.LVL166:
	movl	$69, %edx
	movl	$1, %edi
.LVL167:
	xorl	%eax, %eax
	call	__printf_chk@PLT
.LVL168:
.LBE296:
.LBE295:
	.loc 1 623 0
	call	abort@PLT
.LVL169:
.L101:
.LBE307:
.LBB308:
.LBB261:
.LBB262:
	.loc 2 104 0
	leaq	.LC0(%rip), %rsi
.LVL170:
	movl	$74, %edx
	movl	$1, %edi
.LVL171:
	xorl	%eax, %eax
	call	__printf_chk@PLT
.LVL172:
.LBE262:
.LBE261:
	.loc 1 611 0
	call	abort@PLT
.LVL173:
.L121:
.LBB263:
.LBB264:
	.loc 2 104 0
	leaq	.LC0(%rip), %rsi
.LVL174:
	movl	$75, %edx
	movl	$1, %edi
.LVL175:
	xorl	%eax, %eax
	call	__printf_chk@PLT
.LVL176:
.LBE264:
.LBE263:
	.loc 1 610 0
	call	abort@PLT
.LVL177:
.L120:
.LBB265:
.LBB266:
	.loc 2 104 0
	leaq	.LC0(%rip), %rsi
.LVL178:
	movl	$76, %edx
	movl	$1, %edi
.LVL179:
	xorl	%eax, %eax
	call	__printf_chk@PLT
.LVL180:
.LBE266:
.LBE265:
	.loc 1 609 0
	call	abort@PLT
.LVL181:
.L119:
.LBB267:
.LBB268:
	.loc 2 104 0
	leaq	.LC0(%rip), %rsi
.LVL182:
	movl	$77, %edx
	movl	$1, %edi
.LVL183:
	xorl	%eax, %eax
	call	__printf_chk@PLT
.LVL184:
.LBE268:
.LBE267:
	.loc 1 608 0
	call	abort@PLT
.LVL185:
.L118:
.LBB269:
.LBB270:
	.loc 2 104 0
	leaq	.LC0(%rip), %rsi
.LVL186:
	movl	$78, %edx
	movl	$1, %edi
.LVL187:
	xorl	%eax, %eax
	call	__printf_chk@PLT
.LVL188:
.LBE270:
.LBE269:
	.loc 1 607 0
	call	abort@PLT
.LVL189:
.L117:
.LBB271:
.LBB272:
	.loc 2 104 0
	leaq	.LC0(%rip), %rsi
.LVL190:
	movl	$79, %edx
	movl	$1, %edi
.LVL191:
	xorl	%eax, %eax
	call	__printf_chk@PLT
.LVL192:
.LBE272:
.LBE271:
	.loc 1 606 0
	call	abort@PLT
.LVL193:
.L99:
.LBE308:
.LBB309:
.LBB237:
.LBB238:
	.loc 2 104 0
	leaq	.LC0(%rip), %rsi
.LVL194:
	movl	$84, %edx
	movl	$1, %edi
.LVL195:
	xorl	%eax, %eax
	call	__printf_chk@PLT
.LVL196:
.LBE238:
.LBE237:
	.loc 1 597 0
	call	abort@PLT
.LVL197:
.L116:
.LBB239:
.LBB240:
	.loc 2 104 0
	leaq	.LC0(%rip), %rsi
.LVL198:
	movl	$85, %edx
	movl	$1, %edi
.LVL199:
	xorl	%eax, %eax
	call	__printf_chk@PLT
.LVL200:
.LBE240:
.LBE239:
	.loc 1 596 0
	call	abort@PLT
.LVL201:
.L115:
.LBB241:
.LBB242:
	.loc 2 104 0
	leaq	.LC0(%rip), %rsi
.LVL202:
	movl	$86, %edx
	movl	$1, %edi
.LVL203:
	xorl	%eax, %eax
	call	__printf_chk@PLT
.LVL204:
.LBE242:
.LBE241:
	.loc 1 595 0
	call	abort@PLT
.LVL205:
.L114:
.LBB243:
.LBB244:
	.loc 2 104 0
	leaq	.LC0(%rip), %rsi
.LVL206:
	movl	$87, %edx
	movl	$1, %edi
.LVL207:
	xorl	%eax, %eax
	call	__printf_chk@PLT
.LVL208:
.LBE244:
.LBE243:
	.loc 1 594 0
	call	abort@PLT
.LVL209:
.L113:
.LBB245:
.LBB246:
	.loc 2 104 0
	leaq	.LC0(%rip), %rsi
.LVL210:
	movl	$88, %edx
	movl	$1, %edi
.LVL211:
	xorl	%eax, %eax
	call	__printf_chk@PLT
.LVL212:
.LBE246:
.LBE245:
	.loc 1 593 0
	call	abort@PLT
.LVL213:
.L112:
.LBB247:
.LBB248:
	.loc 2 104 0
	leaq	.LC0(%rip), %rsi
.LVL214:
	movl	$89, %edx
	movl	$1, %edi
.LVL215:
	xorl	%eax, %eax
	call	__printf_chk@PLT
.LVL216:
.LBE248:
.LBE247:
	.loc 1 592 0
	call	abort@PLT
.LVL217:
.L97:
.LBE309:
.LBB310:
.LBB223:
.LBB224:
	.loc 2 104 0
	leaq	.LC0(%rip), %rsi
.LVL218:
	movl	$94, %edx
	movl	$1, %edi
.LVL219:
	xorl	%eax, %eax
	call	__printf_chk@PLT
.LVL220:
.LBE224:
.LBE223:
	.loc 1 582 0
	call	abort@PLT
.LVL221:
.L111:
.LBB225:
.LBB226:
	.loc 2 104 0
	leaq	.LC0(%rip), %rsi
.LVL222:
	movl	$95, %edx
	movl	$1, %edi
.LVL223:
	xorl	%eax, %eax
	call	__printf_chk@PLT
.LVL224:
.LBE226:
.LBE225:
	.loc 1 581 0
	call	abort@PLT
.LVL225:
.L110:
.LBB227:
.LBB228:
	.loc 2 104 0
	leaq	.LC0(%rip), %rsi
.LVL226:
	movl	$96, %edx
	movl	$1, %edi
.LVL227:
	xorl	%eax, %eax
	call	__printf_chk@PLT
.LVL228:
.LBE228:
.LBE227:
	.loc 1 580 0
	call	abort@PLT
.LVL229:
.L109:
.LBB229:
.LBB230:
	.loc 2 104 0
	leaq	.LC0(%rip), %rsi
.LVL230:
	movl	$97, %edx
	movl	$1, %edi
.LVL231:
	xorl	%eax, %eax
	call	__printf_chk@PLT
.LVL232:
.LBE230:
.LBE229:
	.loc 1 579 0
	call	abort@PLT
.LVL233:
.L108:
.LBB231:
.LBB232:
	.loc 2 104 0
	leaq	.LC0(%rip), %rsi
.LVL234:
	movl	$98, %edx
	movl	$1, %edi
.LVL235:
	xorl	%eax, %eax
	call	__printf_chk@PLT
.LVL236:
.LBE232:
.LBE231:
	.loc 1 578 0
	call	abort@PLT
.LVL237:
.L107:
.LBB233:
.LBB234:
	.loc 2 104 0
	leaq	.LC0(%rip), %rsi
.LVL238:
	movl	$99, %edx
	movl	$1, %edi
.LVL239:
	xorl	%eax, %eax
	call	__printf_chk@PLT
.LVL240:
.LBE234:
.LBE233:
	.loc 1 577 0
	call	abort@PLT
.LVL241:
.LBE310:
	.cfi_endproc
.LFE34:
	.size	vp, .-vp
	.p2align 4,,15
	.globl	hackgrav
	.type	hackgrav, @function
hackgrav:
.LFB36:
	.loc 1 651 0
	.cfi_startproc
.LVL242:
	pushq	%rbx
	.cfi_def_cfa_offset 16
	.cfi_offset 3, -16
	.loc 1 660 0
	mulsd	%xmm0, %xmm0
.LVL243:
	.loc 1 651 0
	movq	%rdi, %rbx
	.loc 1 661 0
	xorl	%edx, %edx
	.loc 1 651 0
	subq	$144, %rsp
	.cfi_def_cfa_offset 160
.LBB311:
	.loc 1 657 0
	movsd	16(%rdi), %xmm1
.LBE311:
	.loc 1 656 0
	movq	%rdi, 64(%rsp)
.LVL244:
	.loc 1 651 0
	movq	%fs:40, %rax
	movq	%rax, 136(%rsp)
	xorl	%eax, %eax
.LBB312:
	.loc 1 657 0
	movsd	%xmm1, 72(%rsp)
.LVL245:
.LBE312:
	.loc 1 661 0
	movq	$0x000000000, 96(%rsp)
	movq	$0x000000000, 104(%rsp)
.LBB313:
	.loc 1 657 0
	movsd	24(%rdi), %xmm1
.LBE313:
	.loc 1 661 0
	movq	$0x000000000, 112(%rsp)
	movq	$0x000000000, 120(%rsp)
.LBB314:
	.loc 1 657 0
	movsd	%xmm1, 80(%rsp)
.LVL246:
	movsd	32(%rdi), %xmm1
.LBE314:
	.loc 1 661 0
	movq	%rsp, %rdi
.LVL247:
.LBB315:
	.loc 1 657 0
	movsd	%xmm1, 88(%rsp)
.LVL248:
.LBE315:
	.loc 1 661 0
	pushq	120(%rsp)
	.cfi_def_cfa_offset 168
	pushq	120(%rsp)
	.cfi_def_cfa_offset 176
	movsd	.LC3(%rip), %xmm1
	pushq	120(%rsp)
	.cfi_def_cfa_offset 184
	pushq	120(%rsp)
	.cfi_def_cfa_offset 192
	pushq	120(%rsp)
	.cfi_def_cfa_offset 200
	pushq	120(%rsp)
	.cfi_def_cfa_offset 208
	pushq	120(%rsp)
	.cfi_def_cfa_offset 216
	pushq	120(%rsp)
	.cfi_def_cfa_offset 224
	call	walksub@PLT
.LVL249:
	movdqu	64(%rsp), %xmm0
	movaps	%xmm0, 128(%rsp)
	movdqu	80(%rsp), %xmm0
	movaps	%xmm0, 144(%rsp)
	movdqu	96(%rsp), %xmm0
	movaps	%xmm0, 160(%rsp)
	movdqu	112(%rsp), %xmm0
	movaps	%xmm0, 176(%rsp)
	.loc 1 662 0
	movsd	160(%rsp), %xmm0
	movsd	%xmm0, 120(%rbx)
.LVL250:
.LBB316:
	.loc 1 664 0
	movsd	168(%rsp), %xmm0
	movsd	%xmm0, 96(%rbx)
.LVL251:
	movsd	176(%rsp), %xmm0
	movsd	%xmm0, 104(%rbx)
.LVL252:
	movsd	184(%rsp), %xmm0
.LBE316:
	.loc 1 666 0
	addq	$64, %rsp
	.cfi_def_cfa_offset 160
	movq	136(%rsp), %rax
	xorq	%fs:40, %rax
.LBB317:
	.loc 1 664 0
	movsd	%xmm0, 112(%rbx)
.LVL253:
.LBE317:
	.loc 1 666 0
	jne	.L131
	addq	$144, %rsp
	.cfi_remember_state
	.cfi_def_cfa_offset 16
	popq	%rbx
	.cfi_def_cfa_offset 8
.LVL254:
	ret
.LVL255:
.L131:
	.cfi_restore_state
	call	__stack_chk_fail@PLT
.LVL256:
	.cfi_endproc
.LFE36:
	.size	hackgrav, .-hackgrav
	.p2align 4,,15
	.globl	gravstep
	.type	gravstep, @function
gravstep:
.LFB35:
	.loc 1 640 0
	.cfi_startproc
.LVL257:
	.loc 1 640 0
	movq	%rdi, %rax
	movq	%rsi, %rdi
.LVL258:
	.loc 1 642 0
	movq	%rax, %rsi
.LVL259:
	jmp	hackgrav
.LVL260:
	.cfi_endproc
.LFE35:
	.size	gravstep, .-gravstep
	.p2align 4,,15
	.globl	grav
	.type	grav, @function
grav:
.LFB33:
	.loc 1 527 0
	.cfi_startproc
.LVL261:
	pushq	%rbp
	.cfi_def_cfa_offset 16
	.cfi_offset 6, -16
	pushq	%rbx
	.cfi_def_cfa_offset 24
	.cfi_offset 3, -24
	subq	$24, %rsp
	.cfi_def_cfa_offset 48
	.loc 1 540 0
	testq	%rsi, %rsi
	.loc 1 527 0
	movsd	%xmm0, 8(%rsp)
.LVL262:
	.loc 1 540 0
	je	.L133
	movq	%rdi, %rbp
	movq	%rsi, %rbx
.LVL263:
	.p2align 4,,10
	.p2align 3
.L135:
.LBB318:
.LBB319:
	.loc 1 642 0
	movsd	8(%rsp), %xmm0
	movq	%rbx, %rdi
	movq	%rbp, %rsi
	call	hackgrav
.LVL264:
.LBE319:
.LBE318:
	.loc 1 542 0
	movq	136(%rbx), %rbx
.LVL265:
	.loc 1 540 0
	testq	%rbx, %rbx
	jne	.L135
.LVL266:
.L133:
	.loc 1 548 0
	addq	$24, %rsp
	.cfi_def_cfa_offset 24
	popq	%rbx
	.cfi_def_cfa_offset 16
	popq	%rbp
	.cfi_def_cfa_offset 8
	ret
	.cfi_endproc
.LFE33:
	.size	grav, .-grav
	.p2align 4,,15
	.globl	computegrav
	.type	computegrav, @function
computegrav:
.LFB32:
	.loc 1 507 0
	.cfi_startproc
.LVL267:
	pushq	%r14
	.cfi_def_cfa_offset 16
	.cfi_offset 14, -16
	pushq	%r13
	.cfi_def_cfa_offset 24
	.cfi_offset 13, -24
	pushq	%r12
	.cfi_def_cfa_offset 32
	.cfi_offset 12, -32
	pushq	%rbp
	.cfi_def_cfa_offset 40
	.cfi_offset 6, -40
	pushq	%rbx
	.cfi_def_cfa_offset 48
	.cfi_offset 3, -48
	subq	$16, %rsp
	.cfi_def_cfa_offset 64
	.loc 1 518 0
	movl	NumNodes(%rip), %eax
	.loc 1 514 0
	movsd	24(%rdi), %xmm1
	.loc 1 518 0
	subl	$1, %eax
	.loc 1 514 0
	movsd	%xmm1, 8(%rsp)
.LVL268:
	.loc 1 518 0
	js	.L141
	movslq	%eax, %rdx
	movl	%eax, %eax
	movq	%rdi, %r13
	leaq	552(,%rdx,8), %rdx
	salq	$3, %rax
.LVL269:
	leaq	-8(%rdi,%rdx), %r14
	leaq	(%rdi,%rdx), %r12
	subq	%rax, %r14
.LVL270:
	.p2align 4,,10
	.p2align 3
.L145:
	.loc 1 520 0 discriminator 3
	movq	(%r12), %rbx
	.loc 1 519 0 discriminator 3
	movq	32(%r13), %rbp
.LVL271:
.LBB320:
.LBB321:
	.loc 1 540 0 discriminator 3
	testq	%rbx, %rbx
	je	.L143
.LVL272:
	.p2align 4,,10
	.p2align 3
.L144:
.LBB322:
.LBB323:
	.loc 1 642 0
	movsd	8(%rsp), %xmm0
	movq	%rbx, %rdi
	movq	%rbp, %rsi
	call	hackgrav
.LVL273:
.LBE323:
.LBE322:
	.loc 1 542 0
	movq	136(%rbx), %rbx
.LVL274:
	.loc 1 540 0
	testq	%rbx, %rbx
	jne	.L144
.L143:
.LVL275:
	subq	$8, %r12
.LBE321:
.LBE320:
	.loc 1 518 0
	cmpq	%r14, %r12
	jne	.L145
.LVL276:
.L141:
	.loc 1 523 0
	addq	$16, %rsp
	.cfi_def_cfa_offset 48
	popq	%rbx
	.cfi_def_cfa_offset 40
	popq	%rbp
	.cfi_def_cfa_offset 32
	popq	%r12
	.cfi_def_cfa_offset 24
	popq	%r13
	.cfi_def_cfa_offset 16
	popq	%r14
	.cfi_def_cfa_offset 8
	ret
	.cfi_endproc
.LFE32:
	.size	computegrav, .-computegrav
	.p2align 4,,15
	.globl	gravsub
	.type	gravsub, @function
gravsub:
.LFB37:
	.loc 1 673 0
	.cfi_startproc
.LVL277:
	subq	$72, %rsp
	.cfi_def_cfa_offset 80
.LBB324:
	.loc 1 682 0
	pxor	%xmm6, %xmm6
.LBE324:
.LBB325:
	.loc 1 681 0
	movsd	16(%rsi), %xmm3
.LBE325:
	.loc 1 673 0
	movq	%rdi, %rax
.LBB326:
	.loc 1 681 0
	movsd	24(%rsi), %xmm2
	subsd	88(%rsp), %xmm3
	movsd	32(%rsi), %xmm1
	subsd	96(%rsp), %xmm2
	movsd	112(%rsp), %xmm5
.LVL278:
	subsd	104(%rsp), %xmm1
.LVL279:
.LBE326:
.LBB327:
	.loc 1 682 0
	movapd	%xmm3, %xmm0
	movapd	%xmm2, %xmm4
	mulsd	%xmm3, %xmm0
	mulsd	%xmm2, %xmm4
	addsd	%xmm6, %xmm0
.LVL280:
	addsd	%xmm4, %xmm0
.LVL281:
	movapd	%xmm1, %xmm4
	mulsd	%xmm1, %xmm4
	addsd	%xmm0, %xmm4
.LVL282:
.LBE327:
	.loc 1 684 0
	addsd	.LC18(%rip), %xmm4
.LVL283:
	ucomisd	%xmm4, %xmm6
	.loc 1 685 0
	sqrtsd	%xmm4, %xmm7
	ja	.L155
.LVL284:
.L153:
	.loc 1 686 0
	movsd	8(%rsi), %xmm0
	divsd	%xmm7, %xmm0
.LVL285:
	.loc 1 688 0
	movapd	%xmm0, %xmm7
.LVL286:
	.loc 1 687 0
	subsd	%xmm0, %xmm5
	.loc 1 707 0
	movdqu	80(%rsp), %xmm0
.LVL287:
	.loc 1 688 0
	divsd	%xmm4, %xmm7
.LVL288:
	.loc 1 707 0
	movups	%xmm0, (%rax)
	movsd	%xmm5, 112(%rsp)
	movdqu	96(%rsp), %xmm0
	movups	%xmm0, 16(%rax)
.LBB328:
	.loc 1 689 0
	mulsd	%xmm7, %xmm3
	mulsd	%xmm7, %xmm2
	mulsd	%xmm7, %xmm1
.LBE328:
.LBB329:
	.loc 1 690 0
	addsd	120(%rsp), %xmm3
	addsd	128(%rsp), %xmm2
	addsd	136(%rsp), %xmm1
	movsd	%xmm3, 120(%rsp)
.LVL289:
	movsd	%xmm2, 128(%rsp)
.LVL290:
	movsd	%xmm1, 136(%rsp)
.LVL291:
.LBE329:
	.loc 1 707 0
	movdqu	112(%rsp), %xmm0
	movups	%xmm0, 32(%rax)
	movdqu	128(%rsp), %xmm0
	movups	%xmm0, 48(%rax)
	.loc 1 708 0
	addq	$72, %rsp
	.cfi_remember_state
	.cfi_def_cfa_offset 8
	ret
.LVL292:
.L155:
	.cfi_restore_state
	.loc 1 685 0
	movapd	%xmm4, %xmm0
	movq	%rsi, 56(%rsp)
	movsd	%xmm2, 40(%rsp)
	movq	%rdi, 48(%rsp)
	movsd	%xmm3, 32(%rsp)
	movsd	%xmm7, 24(%rsp)
	movsd	%xmm5, 16(%rsp)
	movsd	%xmm1, 8(%rsp)
	movsd	%xmm4, (%rsp)
	call	sqrt@PLT
.LVL293:
	movq	56(%rsp), %rsi
	movq	48(%rsp), %rax
	movsd	40(%rsp), %xmm2
	movsd	32(%rsp), %xmm3
	movsd	24(%rsp), %xmm7
	movsd	16(%rsp), %xmm5
	movsd	8(%rsp), %xmm1
	movsd	(%rsp), %xmm4
	jmp	.L153
	.cfi_endproc
.LFE37:
	.size	gravsub, .-gravsub
	.p2align 4,,15
	.globl	subdivp
	.type	subdivp, @function
subdivp:
.LFB38:
	.loc 1 730 0
	.cfi_startproc
.LVL294:
	.loc 1 738 0
	xorl	%eax, %eax
	.loc 1 737 0
	cmpw	$1, (%rdi)
	je	.L156
.LVL295:
.LBB330:
	.loc 1 740 0
	movsd	16(%rdi), %xmm4
.LBE330:
	.loc 1 744 0
	xorl	%eax, %eax
.LBB331:
	.loc 1 740 0
	movsd	24(%rdi), %xmm3
	subsd	16(%rsp), %xmm4
.LVL296:
	movsd	32(%rdi), %xmm2
	subsd	24(%rsp), %xmm3
.LVL297:
	subsd	32(%rsp), %xmm2
.LVL298:
.LBE331:
.LBB332:
	.loc 1 741 0
	mulsd	%xmm4, %xmm4
	mulsd	%xmm3, %xmm3
	mulsd	%xmm2, %xmm2
	addsd	.LC1(%rip), %xmm4
.LVL299:
	addsd	%xmm4, %xmm3
.LVL300:
	addsd	%xmm3, %xmm2
.LBE332:
	.loc 1 744 0
	mulsd	%xmm2, %xmm1
.LVL301:
	ucomisd	%xmm1, %xmm0
	seta	%al
.LVL302:
.L156:
	.loc 1 745 0
	rep ret
	.cfi_endproc
.LFE38:
	.size	subdivp, .-subdivp
	.p2align 4,,15
	.globl	intcoord1
	.type	intcoord1, @function
intcoord1:
.LFB42:
	.loc 1 938 0
	.cfi_startproc
.LVL303:
	subq	$56, %rsp
	.cfi_def_cfa_offset 64
	.loc 1 951 0
	pxor	%xmm3, %xmm3
	.loc 1 950 0
	subsd	(%rdi), %xmm0
.LVL304:
	movsd	24(%rdi), %xmm4
	.loc 1 938 0
	movq	%fs:40, %rax
	movq	%rax, 40(%rsp)
	xorl	%eax, %eax
.LVL305:
	.loc 1 950 0
	divsd	%xmm4, %xmm0
.LVL306:
	.loc 1 951 0
	ucomisd	%xmm3, %xmm0
	jb	.L186
	.loc 1 951 0 is_stmt 0 discriminator 1
	movsd	.LC3(%rip), %xmm6
	ucomisd	%xmm0, %xmm6
	ja	.L192
.L186:
	.loc 1 955 0 is_stmt 1
	xorl	%eax, %eax
.LVL307:
.L160:
	.loc 1 958 0
	subsd	8(%rdi), %xmm1
.LVL308:
	divsd	%xmm4, %xmm1
.LVL309:
	.loc 1 959 0
	ucomisd	%xmm3, %xmm1
	jb	.L188
	.loc 1 959 0 is_stmt 0 discriminator 1
	movsd	.LC3(%rip), %xmm5
	ucomisd	%xmm1, %xmm5
	ja	.L193
.L188:
	.loc 1 963 0 is_stmt 1
	xorl	%eax, %eax
.LVL310:
.L164:
	.loc 1 967 0
	subsd	16(%rdi), %xmm2
.LVL311:
	divsd	%xmm4, %xmm2
.LVL312:
	.loc 1 968 0
	ucomisd	%xmm3, %xmm2
	jb	.L190
	.loc 1 968 0 is_stmt 0 discriminator 1
	movsd	.LC3(%rip), %xmm1
	ucomisd	%xmm2, %xmm1
	ja	.L194
.L190:
	.loc 1 972 0 is_stmt 1
	xorl	%eax, %eax
.LVL313:
.L168:
	.loc 1 976 0
	movl	%esi, 16(%rsp)
	movw	%ax, 28(%rsp)
.LVL314:
	.loc 1 977 0
	movq	40(%rsp), %rsi
	xorq	%fs:40, %rsi
	.loc 1 976 0
	movl	%ecx, 20(%rsp)
	movl	%edx, 24(%rsp)
	.loc 1 977 0
	movq	16(%rsp), %rax
	movq	24(%rsp), %rdx
	jne	.L195
	addq	$56, %rsp
	.cfi_remember_state
	.cfi_def_cfa_offset 8
	ret
.LVL315:
	.p2align 4,,10
	.p2align 3
.L194:
	.cfi_restore_state
	.loc 1 969 0
	mulsd	.LC19(%rip), %xmm2
.LVL316:
	movsd	.LC13(%rip), %xmm4
.LVL317:
	movsd	.LC20(%rip), %xmm5
	movapd	%xmm2, %xmm3
	movapd	%xmm2, %xmm0
	andpd	%xmm4, %xmm3
	ucomisd	%xmm3, %xmm5
	ja	.L196
	cvttsd2si	%xmm0, %edx
.LVL318:
	jmp	.L168
.LVL319:
	.p2align 4,,10
	.p2align 3
.L193:
	.loc 1 960 0
	mulsd	.LC19(%rip), %xmm1
.LVL320:
	movsd	.LC13(%rip), %xmm7
	movsd	.LC20(%rip), %xmm8
	movapd	%xmm1, %xmm6
	movapd	%xmm1, %xmm0
	andpd	%xmm7, %xmm6
	ucomisd	%xmm6, %xmm8
	ja	.L197
	cvttsd2si	%xmm0, %ecx
.LVL321:
	jmp	.L164
.LVL322:
	.p2align 4,,10
	.p2align 3
.L192:
	.loc 1 952 0
	mulsd	.LC19(%rip), %xmm0
.LVL323:
	movsd	.LC13(%rip), %xmm8
	movsd	.LC20(%rip), %xmm9
	movapd	%xmm0, %xmm7
	movapd	%xmm0, %xmm5
	andpd	%xmm8, %xmm7
	ucomisd	%xmm7, %xmm9
	ja	.L198
	cvttsd2si	%xmm5, %esi
.LVL324:
	.loc 1 948 0
	movl	$1, %eax
	.loc 1 952 0
	jmp	.L160
.LVL325:
	.p2align 4,,10
	.p2align 3
.L196:
	.loc 1 969 0
	cvttsd2siq	%xmm2, %rdx
	pxor	%xmm3, %xmm3
	andnpd	%xmm2, %xmm4
	cvtsi2sdq	%rdx, %xmm3
	movapd	%xmm3, %xmm7
	cmpnlesd	%xmm2, %xmm7
	movapd	%xmm7, %xmm0
	andpd	%xmm1, %xmm0
	subsd	%xmm0, %xmm3
	movapd	%xmm3, %xmm0
	orpd	%xmm4, %xmm0
	cvttsd2si	%xmm0, %edx
.LVL326:
	jmp	.L168
.LVL327:
	.p2align 4,,10
	.p2align 3
.L198:
	.loc 1 952 0
	cvttsd2siq	%xmm0, %rax
	pxor	%xmm7, %xmm7
	andnpd	%xmm0, %xmm8
	cvtsi2sdq	%rax, %xmm7
	.loc 1 948 0
	movl	$1, %eax
	.loc 1 952 0
	movapd	%xmm7, %xmm10
	cmpnlesd	%xmm0, %xmm10
	movapd	%xmm10, %xmm5
	andpd	%xmm6, %xmm5
	subsd	%xmm5, %xmm7
	movapd	%xmm7, %xmm5
	orpd	%xmm8, %xmm5
	cvttsd2si	%xmm5, %esi
.LVL328:
	jmp	.L160
.LVL329:
	.p2align 4,,10
	.p2align 3
.L197:
	.loc 1 960 0
	cvttsd2siq	%xmm1, %rcx
	pxor	%xmm6, %xmm6
	andnpd	%xmm1, %xmm7
	cvtsi2sdq	%rcx, %xmm6
	movapd	%xmm6, %xmm11
	cmpnlesd	%xmm1, %xmm11
	movapd	%xmm11, %xmm0
	andpd	%xmm5, %xmm0
	subsd	%xmm0, %xmm6
	movapd	%xmm6, %xmm0
	orpd	%xmm7, %xmm0
	cvttsd2si	%xmm0, %ecx
.LVL330:
	jmp	.L164
.LVL331:
.L195:
	.loc 1 977 0
	call	__stack_chk_fail@PLT
.LVL332:
	.cfi_endproc
.LFE42:
	.size	intcoord1, .-intcoord1
	.p2align 4,,15
	.globl	intcoord
	.type	intcoord, @function
intcoord:
.LFB43:
	.loc 1 986 0
	.cfi_startproc
.LVL333:
	subq	$56, %rsp
	.cfi_def_cfa_offset 64
	.loc 1 1004 0
	pxor	%xmm3, %xmm3
	.loc 1 1003 0
	movsd	16(%rdi), %xmm2
	.loc 1 995 0
	movsd	24(%rsi), %xmm4
	.loc 1 1003 0
	subsd	(%rsi), %xmm2
	.loc 1 998 0
	movsd	24(%rdi), %xmm1
	.loc 1 986 0
	movq	%fs:40, %rax
	movq	%rax, 40(%rsp)
	xorl	%eax, %eax
.LVL334:
	.loc 1 999 0
	movsd	32(%rdi), %xmm0
.LVL335:
	.loc 1 1003 0
	divsd	%xmm4, %xmm2
.LVL336:
	.loc 1 1004 0
	ucomisd	%xmm3, %xmm2
	jb	.L226
	.loc 1 1004 0 is_stmt 0 discriminator 1
	movsd	.LC3(%rip), %xmm6
	ucomisd	%xmm2, %xmm6
	ja	.L232
.L226:
	.loc 1 1007 0 is_stmt 1
	xorl	%eax, %eax
	.loc 1 1008 0
	xorl	%edi, %edi
.LVL337:
.L200:
	.loc 1 1012 0
	subsd	8(%rsi), %xmm1
.LVL338:
	divsd	%xmm4, %xmm1
.LVL339:
	.loc 1 1013 0
	ucomisd	%xmm3, %xmm1
	jb	.L228
	.loc 1 1013 0 is_stmt 0 discriminator 1
	movsd	.LC3(%rip), %xmm5
	ucomisd	%xmm1, %xmm5
	ja	.L233
.L228:
	.loc 1 1016 0 is_stmt 1
	xorl	%eax, %eax
.LVL340:
	.loc 1 1017 0
	xorl	%ecx, %ecx
.LVL341:
.L204:
	.loc 1 1021 0
	subsd	16(%rsi), %xmm0
.LVL342:
	divsd	%xmm4, %xmm0
.LVL343:
	.loc 1 1022 0
	ucomisd	%xmm3, %xmm0
	jb	.L230
	.loc 1 1022 0 is_stmt 0 discriminator 1
	movsd	.LC3(%rip), %xmm2
	ucomisd	%xmm0, %xmm2
	ja	.L234
.L230:
	.loc 1 1025 0 is_stmt 1
	xorl	%eax, %eax
.LVL344:
	.loc 1 1026 0
	xorl	%edx, %edx
.LVL345:
.L208:
	.loc 1 1031 0
	movl	%ecx, 20(%rsp)
	movw	%ax, 28(%rsp)
.LVL346:
	.loc 1 1032 0
	movq	40(%rsp), %rcx
	xorq	%fs:40, %rcx
	.loc 1 1031 0
	movl	%edi, 16(%rsp)
	movl	%edx, 24(%rsp)
	.loc 1 1032 0
	movq	16(%rsp), %rax
	movq	24(%rsp), %rdx
	jne	.L235
	addq	$56, %rsp
	.cfi_remember_state
	.cfi_def_cfa_offset 8
	ret
.LVL347:
	.p2align 4,,10
	.p2align 3
.L234:
	.cfi_restore_state
	.loc 1 1023 0
	mulsd	.LC19(%rip), %xmm0
.LVL348:
	movsd	.LC13(%rip), %xmm4
.LVL349:
	movsd	.LC20(%rip), %xmm5
	movapd	%xmm0, %xmm3
	movapd	%xmm0, %xmm1
	andpd	%xmm4, %xmm3
	ucomisd	%xmm3, %xmm5
	ja	.L236
	cvttsd2si	%xmm1, %edx
.LVL350:
	jmp	.L208
.LVL351:
	.p2align 4,,10
	.p2align 3
.L233:
	.loc 1 1014 0
	mulsd	.LC19(%rip), %xmm1
.LVL352:
	movsd	.LC13(%rip), %xmm7
	movsd	.LC20(%rip), %xmm8
	movapd	%xmm1, %xmm6
	movapd	%xmm1, %xmm2
	andpd	%xmm7, %xmm6
	ucomisd	%xmm6, %xmm8
	ja	.L237
	cvttsd2si	%xmm2, %ecx
.LVL353:
	jmp	.L204
.LVL354:
	.p2align 4,,10
	.p2align 3
.L232:
	.loc 1 1005 0
	mulsd	.LC19(%rip), %xmm2
.LVL355:
	movsd	.LC13(%rip), %xmm8
	movsd	.LC20(%rip), %xmm9
	movapd	%xmm2, %xmm7
	movapd	%xmm2, %xmm5
	andpd	%xmm8, %xmm7
	ucomisd	%xmm7, %xmm9
	ja	.L238
	cvttsd2si	%xmm5, %edi
.LVL356:
	.loc 1 994 0
	movl	$1, %eax
	.loc 1 1005 0
	jmp	.L200
.LVL357:
	.p2align 4,,10
	.p2align 3
.L236:
	.loc 1 1023 0
	cvttsd2siq	%xmm0, %rdx
	pxor	%xmm3, %xmm3
	andnpd	%xmm0, %xmm4
	cvtsi2sdq	%rdx, %xmm3
	movapd	%xmm3, %xmm7
	cmpnlesd	%xmm0, %xmm7
	movapd	%xmm7, %xmm1
	andpd	%xmm2, %xmm1
	subsd	%xmm1, %xmm3
	movapd	%xmm3, %xmm1
	orpd	%xmm4, %xmm1
	cvttsd2si	%xmm1, %edx
.LVL358:
	jmp	.L208
.LVL359:
	.p2align 4,,10
	.p2align 3
.L238:
	.loc 1 1005 0
	cvttsd2siq	%xmm2, %rax
	pxor	%xmm7, %xmm7
	andnpd	%xmm2, %xmm8
	cvtsi2sdq	%rax, %xmm7
	.loc 1 994 0
	movl	$1, %eax
	.loc 1 1005 0
	movapd	%xmm7, %xmm10
	cmpnlesd	%xmm2, %xmm10
	movapd	%xmm10, %xmm5
	andpd	%xmm6, %xmm5
	subsd	%xmm5, %xmm7
	movapd	%xmm7, %xmm5
	orpd	%xmm8, %xmm5
	cvttsd2si	%xmm5, %edi
.LVL360:
	jmp	.L200
.LVL361:
	.p2align 4,,10
	.p2align 3
.L237:
	.loc 1 1014 0
	cvttsd2siq	%xmm1, %rdx
	pxor	%xmm6, %xmm6
	andnpd	%xmm1, %xmm7
	cvtsi2sdq	%rdx, %xmm6
	movapd	%xmm6, %xmm11
	cmpnlesd	%xmm1, %xmm11
	movapd	%xmm11, %xmm2
	andpd	%xmm5, %xmm2
	subsd	%xmm2, %xmm6
	movapd	%xmm6, %xmm2
	orpd	%xmm7, %xmm2
	cvttsd2si	%xmm2, %ecx
.LVL362:
	jmp	.L204
.LVL363:
.L235:
	.loc 1 1032 0
	call	__stack_chk_fail@PLT
.LVL364:
	.cfi_endproc
.LFE43:
	.size	intcoord, .-intcoord
	.p2align 4,,15
	.globl	ic_test
	.type	ic_test, @function
ic_test:
.LFB44:
	.loc 1 1036 0
	.cfi_startproc
.LVL365:
	.loc 1 1048 0
	movsd	16(%rdi), %xmm2
	.loc 1 1050 0
	xorl	%eax, %eax
	.loc 1 1046 0
	movsd	24(%rsi), %xmm4
	.loc 1 1048 0
	subsd	(%rsi), %xmm2
	.loc 1 1049 0
	pxor	%xmm3, %xmm3
	.loc 1 1044 0
	movsd	24(%rdi), %xmm1
.LVL366:
	.loc 1 1045 0
	movsd	32(%rdi), %xmm0
.LVL367:
	.loc 1 1048 0
	divsd	%xmm4, %xmm2
.LVL368:
	.loc 1 1049 0
	ucomisd	%xmm3, %xmm2
	jb	.L240
	.loc 1 1049 0 is_stmt 0 discriminator 1
	movsd	.LC3(%rip), %xmm5
	xorl	%eax, %eax
	ucomisd	%xmm2, %xmm5
	seta	%al
.L240:
.LVL369:
	.loc 1 1053 0 is_stmt 1
	subsd	8(%rsi), %xmm1
.LVL370:
	divsd	%xmm4, %xmm1
.LVL371:
	.loc 1 1054 0
	ucomisd	%xmm3, %xmm1
	jb	.L257
	.loc 1 1058 0 discriminator 1
	subsd	16(%rsi), %xmm0
.LVL372:
	.loc 1 1055 0 discriminator 1
	movsd	.LC3(%rip), %xmm2
	movl	$0, %edx
	ucomisd	%xmm1, %xmm2
	.loc 1 1058 0 discriminator 1
	divsd	%xmm4, %xmm0
	.loc 1 1055 0 discriminator 1
	cmovbe	%edx, %eax
.LVL373:
	.loc 1 1059 0 discriminator 1
	ucomisd	%xmm3, %xmm0
	jb	.L258
.L259:
	.loc 1 1060 0 discriminator 1
	movsd	.LC3(%rip), %xmm1
	movl	$0, %edx
	ucomisd	%xmm0, %xmm1
	cmovbe	%edx, %eax
.LVL374:
	ret
.LVL375:
	.p2align 4,,10
	.p2align 3
.L257:
	.loc 1 1058 0
	subsd	16(%rsi), %xmm0
.LVL376:
	.loc 1 1055 0
	xorl	%eax, %eax
.LVL377:
	.loc 1 1058 0
	divsd	%xmm4, %xmm0
.LVL378:
	.loc 1 1059 0
	ucomisd	%xmm3, %xmm0
	jnb	.L259
.L258:
	.loc 1 1060 0
	xorl	%eax, %eax
.LVL379:
	.loc 1 1073 0
	ret
	.cfi_endproc
.LFE44:
	.size	ic_test, .-ic_test
	.p2align 4,,15
	.globl	expandbox
	.type	expandbox, @function
expandbox:
.LFB40:
	.loc 1 835 0
	.cfi_startproc
.LVL380:
	pushq	%r12
	.cfi_def_cfa_offset 16
	.cfi_offset 12, -16
	pushq	%rbp
	.cfi_def_cfa_offset 24
	.cfi_offset 6, -24
	pushq	%rbx
	.cfi_def_cfa_offset 32
	.cfi_offset 3, -32
	movq	%rsi, %rbx
	subq	$96, %rsp
	.cfi_def_cfa_offset 128
	.loc 1 835 0
	movq	%fs:40, %rax
	movq	%rax, 88(%rsp)
	xorl	%eax, %eax
	.loc 1 844 0
	call	ic_test
.LVL381:
	.loc 1 845 0
	testl	%eax, %eax
	jne	.L260
	movsd	.LC21(%rip), %xmm6
	movq	%rdi, %rbp
.LBB333:
	.loc 1 849 0
	movsd	.LC22(%rip), %xmm5
.LVL382:
.L271:
	movsd	24(%rbx), %xmm3
	.p2align 4,,10
	.p2align 3
.L266:
.LVL383:
.LBE333:
	.loc 1 848 0
	ucomisd	%xmm3, %xmm6
	jbe	.L285
.LBB334:
	.loc 1 849 0
	movapd	%xmm3, %xmm2
	movsd	(%rbx), %xmm0
	movsd	8(%rbx), %xmm1
	leaq	64(%rsp), %rdx
	mulsd	%xmm5, %xmm2
.LVL384:
	xorl	%eax, %eax
	addsd	%xmm2, %xmm0
	addsd	%xmm2, %xmm1
	addsd	16(%rbx), %xmm2
	movsd	%xmm0, 64(%rsp)
.LVL385:
	movsd	%xmm1, 72(%rsp)
.LVL386:
	movsd	%xmm2, 80(%rsp)
.LVL387:
.L265:
.LBE334:
	.loc 1 863 0
	movsd	(%rdx,%rax), %xmm4
	ucomisd	16(%rbp,%rax), %xmm4
	jbe	.L263
.LVL388:
.LBB335:
	.loc 1 867 0
	movsd	(%rbx,%rax), %xmm4
	subsd	%xmm3, %xmm4
	movsd	%xmm4, (%rbx,%rax)
.LVL389:
.L263:
	addq	$8, %rax
.LBE335:
	.loc 1 862 0 discriminator 2
	cmpq	$24, %rax
	jne	.L265
	.loc 1 870 0
	addsd	%xmm3, %xmm3
	.loc 1 875 0
	cmpq	$0, 32(%rbx)
	.loc 1 870 0
	movsd	%xmm3, 24(%rbx)
.LVL390:
	.loc 1 875 0
	je	.L266
.LBB336:
	.loc 1 877 0
	xorl	%edi, %edi
.LVL391:
	movsd	%xmm5, 40(%rsp)
	movsd	%xmm6, 32(%rsp)
	movsd	%xmm1, 24(%rsp)
	movsd	%xmm0, 16(%rsp)
	movsd	%xmm2, 8(%rsp)
	call	cell_alloc
.LVL392:
	.loc 1 879 0
	movsd	8(%rsp), %xmm2
	movq	%rbx, %rdi
	movsd	24(%rsp), %xmm1
	.loc 1 877 0
	movq	%rax, %r12
.LVL393:
	.loc 1 879 0
	movsd	16(%rsp), %xmm0
	call	intcoord1
.LVL394:
	movq	%rdx, 56(%rsp)
.LVL395:
	.loc 1 881 0
	cmpw	$0, 60(%rsp)
	.loc 1 879 0
	movq	%rax, 48(%rsp)
	.loc 1 881 0
	movsd	32(%rsp), %xmm6
	movsd	40(%rsp), %xmm5
	je	.L286
.LBB337:
.LBB338:
	.loc 1 1126 0
	movl	48(%rsp), %eax
	movl	$4, %edx
.LBE338:
.LBE337:
	.loc 1 885 0
	movq	%rbx, %rsi
	movq	%rbp, %rdi
	movsd	%xmm5, 16(%rsp)
	movsd	%xmm6, 8(%rsp)
.LVL396:
.LBB341:
.LBB339:
	.loc 1 1126 0
	andl	$536870912, %eax
.LVL397:
	cmovne	%edx, %eax
.LVL398:
	testb	$32, 55(%rsp)
	leal	2(%rax), %edx
	cmovne	%edx, %eax
.LVL399:
	.loc 1 1125 0
	movl	56(%rsp), %edx
	andl	$536870912, %edx
	.loc 1 1126 0
	cmpl	$1, %edx
.LBE339:
.LBE341:
	.loc 1 883 0
	movq	32(%rbx), %rdx
.LBB342:
.LBB340:
	.loc 1 1126 0
	sbbl	$-1, %eax
.LVL400:
.LBE340:
.LBE342:
	.loc 1 883 0
	cltq
	movq	%rdx, 48(%r12,%rax,8)
	.loc 1 884 0
	movq	%r12, 32(%rbx)
	.loc 1 885 0
	call	ic_test
.LVL401:
.LBE336:
	.loc 1 845 0
	testl	%eax, %eax
	movsd	8(%rsp), %xmm6
	movsd	16(%rsp), %xmm5
	je	.L271
.LVL402:
.L260:
	.loc 1 888 0
	movq	88(%rsp), %rax
	xorq	%fs:40, %rax
.LVL403:
	jne	.L287
	addq	$96, %rsp
	.cfi_remember_state
	.cfi_def_cfa_offset 32
	popq	%rbx
	.cfi_def_cfa_offset 24
.LVL404:
	popq	%rbp
	.cfi_def_cfa_offset 16
	popq	%r12
	.cfi_def_cfa_offset 8
	ret
.LVL405:
.L285:
	.cfi_restore_state
.LBB347:
.LBB348:
	.loc 2 104 0
	movl	$999, %edx
.LVL406:
.L284:
.LBE348:
.LBE347:
.LBB349:
.LBB343:
.LBB344:
	leaq	.LC0(%rip), %rsi
	movl	$1, %edi
	xorl	%eax, %eax
	call	__printf_chk@PLT
.LVL407:
.LBE344:
.LBE343:
	.loc 1 881 0
	call	abort@PLT
.LVL408:
.L287:
.LBE349:
	.loc 1 888 0
	call	__stack_chk_fail@PLT
.LVL409:
.L286:
.LBB350:
.LBB346:
.LBB345:
	.loc 2 104 0
	movl	$1, %edx
	jmp	.L284
.LBE345:
.LBE346:
.LBE350:
	.cfi_endproc
.LFE40:
	.size	expandbox, .-expandbox
	.p2align 4,,15
	.globl	subindex
	.type	subindex, @function
subindex:
.LFB45:
	.loc 1 1083 0
	.cfi_startproc
.LVL410:
	subq	$8, %rsp
	.cfi_def_cfa_offset 16
	.loc 1 1097 0
	pxor	%xmm9, %xmm9
	.loc 1 1096 0
	movsd	16(%rdi), %xmm1
	.loc 1 1094 0
	movsd	24(%rsi), %xmm8
	.loc 1 1096 0
	subsd	(%rsi), %xmm1
	.loc 1 1091 0
	movsd	24(%rdi), %xmm2
.LVL411:
	.loc 1 1092 0
	movsd	32(%rdi), %xmm0
.LVL412:
	.loc 1 1096 0
	divsd	%xmm8, %xmm1
.LVL413:
	.loc 1 1097 0
	ucomisd	%xmm9, %xmm1
	jb	.L289
	.loc 1 1097 0 is_stmt 0 discriminator 2
	movsd	.LC3(%rip), %xmm5
	ucomisd	%xmm1, %xmm5
	jbe	.L289
	.loc 1 1098 0 is_stmt 1
	movapd	%xmm1, %xmm3
	movsd	.LC19(%rip), %xmm7
	movq	.LC13(%rip), %xmm4
	mulsd	%xmm7, %xmm3
	movsd	.LC20(%rip), %xmm6
	movapd	%xmm4, %xmm11
	movapd	%xmm3, %xmm10
	movapd	%xmm3, %xmm1
.LVL414:
	andpd	%xmm4, %xmm10
	ucomisd	%xmm10, %xmm6
	ja	.L314
.L292:
	.loc 1 1100 0
	subsd	8(%rsi), %xmm2
.LVL415:
	.loc 1 1098 0
	cvttsd2si	%xmm1, %eax
	.loc 1 1100 0
	movapd	%xmm2, %xmm1
	divsd	%xmm8, %xmm1
.LVL416:
	.loc 1 1101 0
	ucomisd	%xmm9, %xmm1
	jb	.L293
	.loc 1 1101 0 is_stmt 0 discriminator 2
	ucomisd	%xmm1, %xmm5
	jbe	.L293
	.loc 1 1102 0 is_stmt 1
	mulsd	%xmm7, %xmm1
.LVL417:
	movapd	%xmm4, %xmm3
	movapd	%xmm1, %xmm2
.LVL418:
	movapd	%xmm1, %xmm10
	andpd	%xmm4, %xmm2
	ucomisd	%xmm2, %xmm6
	ja	.L315
.L296:
	.loc 1 1104 0
	subsd	16(%rsi), %xmm0
.LVL419:
	.loc 1 1102 0
	cvttsd2si	%xmm1, %edi
.LVL420:
	.loc 1 1104 0
	divsd	%xmm8, %xmm0
.LVL421:
	.loc 1 1105 0
	ucomisd	%xmm9, %xmm0
	jb	.L297
	.loc 1 1105 0 is_stmt 0 discriminator 2
	ucomisd	%xmm0, %xmm5
	jbe	.L297
	.loc 1 1106 0 is_stmt 1
	mulsd	%xmm7, %xmm0
.LVL422:
	movapd	%xmm0, %xmm1
	movapd	%xmm0, %xmm2
	andpd	%xmm4, %xmm1
	ucomisd	%xmm1, %xmm6
	ja	.L316
.L300:
	cvttsd2si	%xmm0, %ecx
.LVL423:
	.loc 1 1112 0
	andl	%edx, %eax
	movl	$4, %esi
.LVL424:
	cmovne	%esi, %eax
.LVL425:
	testl	%edx, %edi
	leal	2(%rax), %esi
	cmovne	%esi, %eax
.LVL426:
	.loc 1 1111 0
	andl	%ecx, %edx
.LVL427:
	.loc 1 1112 0
	cmpl	$1, %edx
	sbbl	$-1, %eax
.LVL428:
	.loc 1 1115 0
	addq	$8, %rsp
	.cfi_remember_state
	.cfi_def_cfa_offset 8
	ret
.LVL429:
	.p2align 4,,10
	.p2align 3
.L314:
	.cfi_restore_state
	.loc 1 1098 0
	cvttsd2siq	%xmm3, %rax
	pxor	%xmm10, %xmm10
	andnpd	%xmm3, %xmm11
	cvtsi2sdq	%rax, %xmm10
	movapd	%xmm10, %xmm12
	cmpnlesd	%xmm3, %xmm12
	movapd	%xmm12, %xmm1
	andpd	%xmm5, %xmm1
	subsd	%xmm1, %xmm10
	movapd	%xmm10, %xmm1
	orpd	%xmm11, %xmm1
	jmp	.L292
.LVL430:
	.p2align 4,,10
	.p2align 3
.L315:
	.loc 1 1102 0
	cvttsd2siq	%xmm1, %rcx
	pxor	%xmm2, %xmm2
	andnpd	%xmm10, %xmm3
	cvtsi2sdq	%rcx, %xmm2
	movapd	%xmm2, %xmm13
	cmpnlesd	%xmm1, %xmm13
	movapd	%xmm13, %xmm1
	andpd	%xmm5, %xmm1
	subsd	%xmm1, %xmm2
	movapd	%xmm2, %xmm1
	orpd	%xmm3, %xmm1
	jmp	.L296
.LVL431:
	.p2align 4,,10
	.p2align 3
.L316:
	.loc 1 1106 0
	cvttsd2siq	%xmm0, %rcx
	pxor	%xmm1, %xmm1
	andnpd	%xmm2, %xmm4
	cvtsi2sdq	%rcx, %xmm1
	movapd	%xmm1, %xmm6
	cmpnlesd	%xmm0, %xmm6
	movapd	%xmm6, %xmm0
	andpd	%xmm5, %xmm0
	subsd	%xmm0, %xmm1
	movapd	%xmm1, %xmm0
	orpd	%xmm4, %xmm0
	jmp	.L300
.LVL432:
.L297:
.LBB351:
.LBB352:
	.loc 2 104 0
	movl	$7, %edx
.LVL433:
.L313:
.LBE352:
.LBE351:
.LBB353:
.LBB354:
	leaq	.LC0(%rip), %rsi
.LVL434:
	movl	$1, %edi
	xorl	%eax, %eax
	call	__printf_chk@PLT
.LVL435:
.LBE354:
.LBE353:
	.loc 1 1101 0
	call	abort@PLT
.LVL436:
.L289:
.LBB356:
.LBB357:
	.loc 2 104 0
	movl	$5, %edx
.LVL437:
	jmp	.L313
.LVL438:
.L293:
.LBE357:
.LBE356:
.LBB358:
.LBB355:
	movl	$6, %edx
.LVL439:
	jmp	.L313
.LBE355:
.LBE358:
	.cfi_endproc
.LFE45:
	.size	subindex, .-subindex
	.p2align 4,,15
	.globl	loadtree
	.type	loadtree, @function
loadtree:
.LFB41:
	.loc 1 899 0
	.cfi_startproc
.LVL440:
	pushq	%r12
	.cfi_def_cfa_offset 16
	.cfi_offset 12, -16
	pushq	%rbp
	.cfi_def_cfa_offset 24
	.cfi_offset 6, -24
	movq	%rdi, %r12
	pushq	%rbx
	.cfi_def_cfa_offset 32
	.cfi_offset 3, -32
	subq	$48, %rsp
	.cfi_def_cfa_offset 80
	.loc 1 904 0
	testq	%rcx, %rcx
	.loc 1 899 0
	movq	%rsi, 32(%rsp)
	movq	%rdx, 40(%rsp)
	.loc 1 904 0
	je	.L324
	.loc 1 909 0
	testl	%r8d, %r8d
	je	.L331
	.loc 1 910 0
	cmpw	$1, (%rcx)
	movq	%rcx, %rbx
	je	.L332
.LVL441:
.L320:
.LBB359:
.LBB360:
	.loc 1 1126 0
	movl	%r8d, %edx
	andl	32(%rsp), %edx
	movl	$4, %eax
.LBE360:
.LBE359:
	.loc 1 926 0
	movq	32(%rsp), %rsi
	movq	%r12, %rdi
.LBB362:
.LBB361:
	.loc 1 1126 0
	cmovne	%eax, %edx
.LVL442:
	testl	%r8d, 36(%rsp)
	leal	2(%rdx), %eax
	cmovne	%eax, %edx
.LVL443:
	.loc 1 1125 0
	movl	40(%rsp), %eax
	andl	%r8d, %eax
	.loc 1 1126 0
	cmpl	$1, %eax
	sbbl	$-1, %edx
.LVL444:
.LBE361:
.LBE362:
	.loc 1 926 0
	sarl	%r8d
	movslq	%edx, %rdx
	leaq	(%rbx,%rdx,8), %rbp
.LVL445:
	movq	40(%rsp), %rdx
	movq	48(%rbp), %rcx
	call	loadtree
.LVL446:
	movq	%rax, 48(%rbp)
	.loc 1 929 0
	addq	$48, %rsp
	.cfi_remember_state
	.cfi_def_cfa_offset 32
	.loc 1 928 0
	movq	%rbx, %rax
	.loc 1 929 0
	popq	%rbx
	.cfi_def_cfa_offset 24
.LVL447:
	popq	%rbp
	.cfi_def_cfa_offset 16
	popq	%r12
	.cfi_def_cfa_offset 8
.LVL448:
	ret
.LVL449:
	.p2align 4,,10
	.p2align 3
.L324:
	.cfi_restore_state
	addq	$48, %rsp
	.cfi_remember_state
	.cfi_def_cfa_offset 32
	.loc 1 906 0
	movq	%rdi, %rax
	.loc 1 929 0
	popq	%rbx
	.cfi_def_cfa_offset 24
	popq	%rbp
	.cfi_def_cfa_offset 16
	popq	%r12
	.cfi_def_cfa_offset 8
	ret
	.p2align 4,,10
	.p2align 3
.L332:
	.cfi_restore_state
.LBB363:
	.loc 1 917 0
	xorl	%edi, %edi
.LVL450:
	movq	%r9, 24(%rsp)
	movl	%r8d, 8(%rsp)
.LVL451:
	call	cell_alloc
.LVL452:
	.loc 1 918 0
	movl	8(%rsp), %r8d
	movq	24(%rsp), %r9
	movq	%rbx, %rdi
	.loc 1 917 0
	movq	%rax, %rbp
.LVL453:
	.loc 1 918 0
	movl	%r8d, %edx
	movq	%r9, %rsi
	movl	%r8d, 20(%rsp)
	movq	%r9, 8(%rsp)
.LVL454:
	call	subindex
.LVL455:
	.loc 1 920 0
	cltq
	movl	20(%rsp), %r8d
	movq	8(%rsp), %r9
	movq	%rbx, 48(%rbp,%rax,8)
.LVL456:
	movq	%rbp, %rbx
	jmp	.L320
.LVL457:
.L331:
.LBE363:
.LBB364:
.LBB365:
	.loc 2 104 0
	leaq	.LC0(%rip), %rsi
	movl	$2, %edx
	movl	$1, %edi
.LVL458:
	xorl	%eax, %eax
	call	__printf_chk@PLT
.LVL459:
.LBE365:
.LBE364:
	.loc 1 909 0
	call	abort@PLT
.LVL460:
	.cfi_endproc
.LFE41:
	.size	loadtree, .-loadtree
	.p2align 4,,15
	.globl	old_subindex
	.type	old_subindex, @function
old_subindex:
.LFB46:
	.loc 1 1120 0
	.cfi_startproc
.LVL461:
	.loc 1 1120 0
	movq	%rdi, %rax
	.loc 1 1126 0
	movl	$4, %ecx
	.loc 1 1120 0
	shrq	$32, %rax
	movq	%rax, %r8
	.loc 1 1126 0
	movl	%edi, %eax
	andl	%edx, %eax
	cmovne	%ecx, %eax
.LVL462:
	testl	%r8d, %edx
	leal	2(%rax), %ecx
	cmovne	%ecx, %eax
.LVL463:
	.loc 1 1125 0
	andl	%esi, %edx
.LVL464:
	.loc 1 1126 0
	cmpl	$1, %edx
	sbbl	$-1, %eax
.LVL465:
	.loc 1 1128 0
	ret
	.cfi_endproc
.LFE46:
	.size	old_subindex, .-old_subindex
	.p2align 4,,15
	.globl	hackcofm
	.type	hackcofm, @function
hackcofm:
.LFB47:
	.loc 1 1136 0
	.cfi_startproc
.LVL466:
	.loc 1 1144 0
	cmpw	$2, (%rdi)
	je	.L344
	.loc 1 1170 0
	movsd	8(%rdi), %xmm0
.LVL467:
	.loc 1 1175 0
	ret
.LVL468:
	.p2align 4,,10
	.p2align 3
.L344:
	jmp	hackcofm.part.1
.LVL469:
	.cfi_endproc
.LFE47:
	.size	hackcofm, .-hackcofm
	.p2align 4,,15
	.type	hackcofm.part.1, @function
hackcofm.part.1:
.LFB53:
	.loc 1 1135 0
	.cfi_startproc
.LVL470:
	pushq	%r13
	.cfi_def_cfa_offset 16
	.cfi_offset 13, -16
	pushq	%r12
	.cfi_def_cfa_offset 24
	.cfi_offset 12, -24
	movq	%rdi, %r13
	pushq	%rbp
	.cfi_def_cfa_offset 32
	.cfi_offset 6, -32
	pushq	%rbx
	.cfi_def_cfa_offset 40
	.cfi_offset 3, -40
	leaq	112(%rdi), %r12
	leaq	48(%rdi), %rbx
	.loc 1 1145 0
	pxor	%xmm1, %xmm1
	.loc 1 1135 0
	subq	$56, %rsp
	.cfi_def_cfa_offset 96
	.loc 1 1135 0
	movq	%fs:40, %rax
	movq	%rax, 40(%rsp)
	xorl	%eax, %eax
.LVL471:
.LBB366:
	.loc 1 1146 0
	movq	$0x000000000, 16(%rsp)
.LVL472:
	movq	$0x000000000, 24(%rsp)
.LVL473:
	movq	$0x000000000, 32(%rsp)
.LVL474:
	jmp	.L347
.LVL475:
	.p2align 4,,10
	.p2align 3
.L346:
	addq	$8, %rbx
.LBE366:
	.loc 1 1147 0
	cmpq	%rbx, %r12
	je	.L354
.LVL476:
.L347:
	.loc 1 1148 0
	movq	(%rbx), %rbp
.LVL477:
	.loc 1 1149 0
	testq	%rbp, %rbp
	je	.L346
	.loc 1 1150 0
	movq	%rbp, %rdi
	movsd	%xmm1, 8(%rsp)
	addq	$8, %rbx
	call	hackcofm
.LVL478:
	.loc 1 1151 0
	movsd	8(%rsp), %xmm1
	.loc 1 1147 0
	cmpq	%rbx, %r12
.LBB367:
	.loc 1 1152 0
	movsd	24(%rbp), %xmm3
	movsd	32(%rbp), %xmm2
.LBE367:
	.loc 1 1151 0
	addsd	%xmm0, %xmm1
.LVL479:
.LBB368:
	.loc 1 1152 0
	mulsd	%xmm0, %xmm3
.LVL480:
	mulsd	%xmm0, %xmm2
.LVL481:
	mulsd	16(%rbp), %xmm0
.LVL482:
.LBE368:
.LBB369:
	.loc 1 1153 0
	addsd	24(%rsp), %xmm3
	addsd	32(%rsp), %xmm2
	addsd	16(%rsp), %xmm0
	movsd	%xmm3, 24(%rsp)
	movsd	%xmm2, 32(%rsp)
	movsd	%xmm0, 16(%rsp)
.LVL483:
.LBE369:
	.loc 1 1147 0
	jne	.L347
.LVL484:
	.p2align 4,,10
	.p2align 3
.L354:
.LBB370:
	.loc 1 1162 0
	movsd	16(%rsp), %xmm0
.LBE370:
	.loc 1 1175 0
	movq	40(%rsp), %rax
	xorq	%fs:40, %rax
.LBB371:
	.loc 1 1162 0
	divsd	%xmm1, %xmm0
.LBE371:
	.loc 1 1157 0
	movsd	%xmm1, 8(%r13)
.LVL485:
.LBB372:
	.loc 1 1162 0
	movsd	%xmm0, 16(%r13)
.LVL486:
	movsd	24(%rsp), %xmm0
	divsd	%xmm1, %xmm0
	movsd	%xmm0, 24(%r13)
.LVL487:
	movsd	32(%rsp), %xmm0
	divsd	%xmm1, %xmm0
	movsd	%xmm0, 32(%r13)
.LVL488:
.LBE372:
	.loc 1 1175 0
	movapd	%xmm1, %xmm0
	jne	.L355
.LVL489:
	addq	$56, %rsp
	.cfi_remember_state
	.cfi_def_cfa_offset 40
	popq	%rbx
	.cfi_def_cfa_offset 32
	popq	%rbp
	.cfi_def_cfa_offset 24
.LVL490:
	popq	%r12
	.cfi_def_cfa_offset 16
	popq	%r13
	.cfi_def_cfa_offset 8
.LVL491:
	ret
.LVL492:
.L355:
	.cfi_restore_state
	call	__stack_chk_fail@PLT
.LVL493:
	.cfi_endproc
.LFE53:
	.size	hackcofm.part.1, .-hackcofm.part.1
	.p2align 4,,15
	.globl	maketree
	.type	maketree, @function
maketree:
.LFB39:
	.loc 1 788 0
	.cfi_startproc
.LVL494:
	pushq	%r15
	.cfi_def_cfa_offset 16
	.cfi_offset 15, -16
	pushq	%r14
	.cfi_def_cfa_offset 24
	.cfi_offset 14, -24
	pushq	%r13
	.cfi_def_cfa_offset 32
	.cfi_offset 13, -32
	pushq	%r12
	.cfi_def_cfa_offset 40
	.cfi_offset 12, -40
	pushq	%rbp
	.cfi_def_cfa_offset 48
	.cfi_offset 6, -48
	pushq	%rbx
	.cfi_def_cfa_offset 56
	.cfi_offset 3, -56
	movq	%rdx, %rbp
	subq	$56, %rsp
	.cfi_def_cfa_offset 112
	.loc 1 795 0
	movq	$0, 32(%rdx)
	.loc 1 796 0
	movl	%esi, nbody(%rip)
	.loc 1 788 0
	movq	%fs:40, %rax
	movq	%rax, 40(%rsp)
	xorl	%eax, %eax
	.loc 1 799 0
	movl	NumNodes(%rip), %eax
	subl	$1, %eax
	js	.L365
	movslq	%eax, %rdx
.LVL495:
	movl	%eax, %eax
	movl	%ecx, %r14d
	leaq	552(,%rdx,8), %rdx
	salq	$3, %rax
	movl	%r8d, %r15d
	pxor	%xmm0, %xmm0
	leaq	0(%rbp,%rdx), %r12
	subq	$8, %rdx
	subq	%rax, %rdx
	leaq	0(%rbp,%rdx), %r13
.LVL496:
	.p2align 4,,10
	.p2align 3
.L362:
	.loc 1 800 0
	movq	(%r12), %rbx
.LVL497:
	.loc 1 803 0
	testq	%rbx, %rbx
	jne	.L361
	jmp	.L358
.LVL498:
	.p2align 4,,10
	.p2align 3
.L359:
	.loc 1 803 0 discriminator 2
	movq	136(%rbx), %rbx
.LVL499:
	.loc 1 803 0 discriminator 2
	testq	%rbx, %rbx
	je	.L358
.L361:
	.loc 1 804 0
	ucomisd	8(%rbx), %xmm0
	jp	.L366
	je	.L359
.L366:
	.loc 1 805 0
	movl	%r14d, %edx
	movl	%r15d, %ecx
	movq	%rbx, %rdi
	movq	%rbp, %rsi
	movsd	%xmm0, 8(%rsp)
	call	expandbox
.LVL500:
	.loc 1 806 0
	movq	%rbx, %rdi
	movq	%rbp, %rsi
	call	intcoord
.LVL501:
	.loc 1 807 0
	movq	32(%rbp), %rcx
.LVL502:
	.loc 1 808 0
	movq	%rbx, %rdi
	.loc 1 806 0
	movq	%rax, %rsi
	.loc 1 808 0
	movq	%rbp, %r9
	movl	$536870912, %r8d
	.loc 1 806 0
	movq	%rax, 16(%rsp)
	movq	%rdx, 24(%rsp)
	.loc 1 808 0
	call	loadtree
.LVL503:
	.loc 1 803 0
	movq	136(%rbx), %rbx
.LVL504:
	.loc 1 809 0
	movq	%rax, 32(%rbp)
	movsd	8(%rsp), %xmm0
	.loc 1 803 0
	testq	%rbx, %rbx
	jne	.L361
.LVL505:
.L358:
	subq	$8, %r12
	.loc 1 799 0
	cmpq	%r13, %r12
	jne	.L362
	movq	32(%rbp), %rax
.LVL506:
.L357:
.LBB373:
.LBB374:
	.loc 1 1144 0
	cmpw	$2, (%rax)
	je	.L373
.LVL507:
.L356:
.LBE374:
.LBE373:
	.loc 1 823 0
	movq	40(%rsp), %rdi
	xorq	%fs:40, %rdi
	jne	.L374
	addq	$56, %rsp
	.cfi_remember_state
	.cfi_def_cfa_offset 56
	popq	%rbx
	.cfi_def_cfa_offset 48
	popq	%rbp
	.cfi_def_cfa_offset 40
.LVL508:
	popq	%r12
	.cfi_def_cfa_offset 32
	popq	%r13
	.cfi_def_cfa_offset 24
	popq	%r14
	.cfi_def_cfa_offset 16
	popq	%r15
	.cfi_def_cfa_offset 8
	ret
.LVL509:
.L373:
	.cfi_restore_state
.LBB376:
.LBB375:
	movq	%rax, %rdi
	call	hackcofm.part.1
.LVL510:
	movq	32(%rbp), %rax
.LBE375:
.LBE376:
	.loc 1 822 0
	jmp	.L356
.LVL511:
.L365:
	.loc 1 799 0
	xorl	%eax, %eax
	jmp	.L357
.LVL512:
.L374:
	.loc 1 823 0
	call	__stack_chk_fail@PLT
.LVL513:
	.cfi_endproc
.LFE39:
	.size	maketree, .-maketree
	.p2align 4,,15
	.globl	stepsystem
	.type	stepsystem, @function
stepsystem:
.LFB25:
	.loc 1 284 0
	.cfi_startproc
.LVL514:
	pushq	%rbp
	.cfi_def_cfa_offset 16
	.cfi_offset 6, -16
	pushq	%rbx
	.cfi_def_cfa_offset 24
	.cfi_offset 3, -24
	movq	%rdi, %rbx
	movl	%esi, %ebp
	subq	$8, %rsp
	.cfi_def_cfa_offset 32
	.loc 1 293 0
	movq	32(%rdi), %rdi
.LVL515:
	testq	%rdi, %rdi
	je	.L376
.LVL516:
.LBB377:
.LBB378:
.LBB379:
.LBB380:
	.loc 1 327 0
	cmpw	$1, (%rdi)
	jne	.L382
.LVL517:
.L377:
.LBE380:
.LBE379:
.LBE378:
.LBE377:
	.loc 1 295 0
	movq	$0, 32(%rbx)
.L376:
	.loc 1 300 0
	movl	nbody(%rip), %esi
	movl	%ebp, %ecx
	movq	%rbx, %rdx
	xorl	%r8d, %r8d
	xorl	%edi, %edi
	call	maketree
.LVL518:
	.loc 1 305 0
	movl	%ebp, %esi
	movq	%rbx, %rdi
	.loc 1 303 0
	movq	%rax, 32(%rbx)
	.loc 1 305 0
	call	computegrav
.LVL519:
	.loc 1 308 0
	movq	552(%rbx), %rdi
	.loc 1 309 0
	addq	$8, %rsp
	.cfi_remember_state
	.cfi_def_cfa_offset 24
	.loc 1 308 0
	movl	%ebp, %esi
	.loc 1 309 0
	popq	%rbx
	.cfi_def_cfa_offset 16
.LVL520:
	popq	%rbp
	.cfi_def_cfa_offset 8
.LVL521:
	.loc 1 308 0
	jmp	vp
.LVL522:
	.p2align 4,,10
	.p2align 3
.L382:
	.cfi_restore_state
.LBB384:
.LBB383:
.LBB382:
.LBB381:
	call	freetree.part.0
.LVL523:
	jmp	.L377
.LBE381:
.LBE382:
.LBE383:
.LBE384:
	.cfi_endproc
.LFE25:
	.size	stepsystem, .-stepsystem
	.section	.rodata.str1.1
.LC24:
	.string	"bodies created "
.LC25:
	.string	"Bodies per %d = %d\n"
	.text
	.p2align 4,,15
	.globl	old_main
	.type	old_main, @function
old_main:
.LFB23:
	.loc 1 69 0
	.cfi_startproc
	pushq	%r15
	.cfi_def_cfa_offset 16
	.cfi_offset 15, -16
	pushq	%r14
	.cfi_def_cfa_offset 24
	.cfi_offset 14, -24
	.loc 1 82 0
	movl	$123, %edi
	.loc 1 69 0
	pushq	%r13
	.cfi_def_cfa_offset 32
	.cfi_offset 13, -32
	pushq	%r12
	.cfi_def_cfa_offset 40
	.cfi_offset 12, -40
.LBB385:
	.loc 1 99 0
	movl	$32, %r13d
.LBE385:
	.loc 1 69 0
	pushq	%rbp
	.cfi_def_cfa_offset 48
	.cfi_offset 6, -48
	pushq	%rbx
	.cfi_def_cfa_offset 56
	.cfi_offset 3, -56
.LBB398:
	.loc 1 103 0
	movl	$1, %ebx
.LBE398:
	.loc 1 69 0
	subq	$936, %rsp
	.cfi_def_cfa_offset 992
	.loc 1 69 0
	movq	%fs:40, %rax
	movq	%rax, 920(%rsp)
	xorl	%eax, %eax
.LVL524:
	.loc 1 78 0
	movl	$64, %eax
.LBB399:
	.loc 1 101 0
	leaq	400(%rsp), %r14
.LBE399:
	.loc 1 78 0
	cltd
	idivl	NumNodes(%rip)
	movl	%eax, %r12d
.LVL525:
	.loc 1 82 0
	call	srand@PLT
.LVL526:
	.loc 1 85 0
	movl	$1064, %edi
	call	malloc@PLT
.LVL527:
	.loc 1 87 0
	movsd	.LC23(%rip), %xmm0
	.loc 1 85 0
	movq	%rax, %rbp
.LVL528:
	.loc 1 86 0
	movq	$0, 32(%rax)
.LBB400:
	.loc 1 101 0
	movl	$1, %ecx
	movq	%r14, %rdi
.LBE400:
	.loc 1 87 0
	movsd	%xmm0, (%rax)
.LBB401:
	.loc 1 92 0
	movq	$0x000000000, 88(%rsp)
	movq	$0x000000000, 96(%rsp)
.LBE401:
	.loc 1 88 0
	movsd	%xmm0, 8(%rax)
.LBB402:
	.loc 1 93 0
	movq	$0x000000000, 120(%rsp)
	movq	$0x000000000, 128(%rsp)
.LBE402:
	.loc 1 89 0
	movsd	%xmm0, 16(%rax)
	.loc 1 90 0
	movq	.LC6(%rip), %rax
.LVL529:
	movq	%rax, 24(%rbp)
.LVL530:
.LBB403:
	.loc 1 101 0
	movl	nbody(%rip), %eax
	leal	31(%rax), %edx
	testl	%eax, %eax
	cmovns	%eax, %edx
	xorl	%esi, %esi
	sarl	$5, %edx
	call	uniform_testdata
.LVL531:
	.loc 1 103 0
	movq	448(%rsp), %rax
	pxor	%xmm5, %xmm5
	pxor	%xmm4, %xmm4
	movq	%rax, 40(%rbp)
	jmp	.L384
.LVL532:
	.p2align 4,,10
	.p2align 3
.L386:
	.loc 1 101 0
	movl	nbody(%rip), %eax
	leal	1(%rbx), %ecx
	movsd	%xmm4, 16(%rsp)
	movsd	%xmm5, 8(%rsp)
.LVL533:
	leal	31(%rax), %edi
	testl	%eax, %eax
	cmovns	%eax, %edi
	.loc 1 99 0
	movl	%r13d, %eax
	cltd
	.loc 1 101 0
	sarl	$5, %edi
	.loc 1 99 0
	idivl	NumNodes(%rip)
	movl	%eax, %r8d
	movl	%esi, %eax
	cltd
	idivl	%r8d
	.loc 1 101 0
	movl	%edi, %edx
	movq	%r14, %rdi
	.loc 1 99 0
	movl	%eax, %esi
	.loc 1 101 0
	call	uniform_testdata
.LVL534:
	movq	448(%rsp), %rax
	.loc 1 104 0
	testq	%r15, %r15
	movsd	8(%rsp), %xmm5
	movsd	16(%rsp), %xmm4
	.loc 1 103 0
	movq	%rax, 40(%rbp,%rbx,8)
	.loc 1 104 0
	je	.L385
	.loc 1 105 0
	movq	%rax, 128(%r15)
.L385:
	addq	$1, %rbx
.LVL535:
.L384:
.LBB386:
	.loc 1 107 0
	movsd	88(%rsp), %xmm3
.LBE386:
.LBE403:
	.loc 1 96 0
	cmpq	$32, %rbx
	movl	%ebx, %esi
.LBB404:
.LBB387:
	.loc 1 108 0
	movsd	120(%rsp), %xmm1
.LBE387:
	.loc 1 106 0
	movq	456(%rsp), %r15
.LVL536:
.LBB388:
	.loc 1 107 0
	movsd	416(%rsp), %xmm2
	addsd	408(%rsp), %xmm3
.LBE388:
.LBB389:
	.loc 1 108 0
	movsd	440(%rsp), %xmm0
	addsd	432(%rsp), %xmm1
.LBE389:
.LBB390:
	.loc 1 107 0
	addsd	96(%rsp), %xmm2
.LBE390:
.LBB391:
	.loc 1 108 0
	addsd	128(%rsp), %xmm0
.LBE391:
.LBB392:
	.loc 1 107 0
	addsd	400(%rsp), %xmm5
.LVL537:
.LBE392:
.LBB393:
	.loc 1 108 0
	addsd	424(%rsp), %xmm4
.LBE393:
.LBB394:
	.loc 1 107 0
	movsd	%xmm3, 88(%rsp)
.LVL538:
.LBE394:
.LBB395:
	.loc 1 108 0
	movsd	%xmm1, 120(%rsp)
.LBE395:
.LBB396:
	.loc 1 107 0
	movsd	%xmm2, 96(%rsp)
.LVL539:
.LBE396:
.LBB397:
	.loc 1 108 0
	movsd	%xmm0, 128(%rsp)
.LVL540:
.LBE397:
.LBE404:
	.loc 1 96 0
	jne	.L386
.LBB405:
.LBB406:
	.loc 2 104 0
	leaq	.LC24(%rip), %rdi
	movsd	%xmm3, 48(%rsp)
	leaq	144(%rsp), %r15
.LVL541:
	movsd	%xmm1, 56(%rsp)
	movsd	%xmm4, 32(%rsp)
	movsd	%xmm5, 24(%rsp)
	movsd	%xmm0, 16(%rsp)
	movsd	%xmm2, 8(%rsp)
.LVL542:
	call	puts@PLT
.LVL543:
.LBE406:
.LBE405:
.LBB407:
	.loc 1 112 0
	pxor	%xmm6, %xmm6
.LBE407:
.LBB408:
	.loc 1 113 0
	xorl	%edx, %edx
.LBE408:
.LBB409:
	.loc 1 112 0
	movsd	24(%rsp), %xmm5
	movsd	48(%rsp), %xmm3
	movsd	8(%rsp), %xmm2
	cvtsi2sd	nbody(%rip), %xmm6
.LBE409:
.LBB410:
	.loc 1 113 0
	movsd	32(%rsp), %xmm4
	movsd	16(%rsp), %xmm0
	movsd	56(%rsp), %xmm1
.LBE410:
.LBB411:
	.loc 1 112 0
	divsd	%xmm6, %xmm5
	divsd	%xmm6, %xmm3
	movsd	%xmm5, 40(%rsp)
.LVL544:
	divsd	%xmm6, %xmm2
	movsd	%xmm3, 48(%rsp)
.LVL545:
.LBE411:
.LBB412:
	.loc 1 113 0
	divsd	%xmm6, %xmm4
.LBE412:
.LBB413:
	.loc 1 112 0
	movsd	%xmm2, 8(%rsp)
.LVL546:
.LBE413:
.LBB414:
	.loc 1 113 0
	divsd	%xmm6, %xmm1
	movsd	%xmm4, 32(%rsp)
.LVL547:
	divsd	%xmm6, %xmm0
	movsd	%xmm1, 24(%rsp)
.LVL548:
	movsd	%xmm0, 16(%rsp)
.LVL549:
	.p2align 4,,10
	.p2align 3
.L387:
.LBE414:
	.loc 1 116 0 discriminator 3
	movl	$0, (%r15,%rdx,4)
	.loc 1 117 0 discriminator 3
	movq	$0, (%r14,%rdx,8)
.LVL550:
	addq	$1, %rdx
.LVL551:
	.loc 1 115 0 discriminator 3
	cmpq	$64, %rdx
	jne	.L387
	.loc 1 121 0
	movq	40(%rbp), %r13
.LVL552:
	testq	%r13, %r13
	je	.L388
.LBB415:
.LBB416:
.LBB417:
	.loc 1 1126 0
	movl	$4, %ebx
.LVL553:
	.p2align 4,,10
	.p2align 3
.L395:
.LBE417:
.LBE416:
.LBB420:
	.loc 1 124 0
	movsd	16(%r13), %xmm0
.LBE420:
	.loc 1 127 0
	movq	%r13, %rdi
	movq	%rbp, %rsi
.LBB421:
	.loc 1 124 0
	subsd	40(%rsp), %xmm0
	movsd	%xmm0, 16(%r13)
.LVL554:
	movsd	24(%r13), %xmm0
	subsd	48(%rsp), %xmm0
	movsd	%xmm0, 24(%r13)
.LVL555:
	movsd	32(%r13), %xmm0
	subsd	8(%rsp), %xmm0
	movsd	%xmm0, 32(%r13)
.LVL556:
.LBE421:
.LBB422:
	.loc 1 125 0
	movsd	48(%r13), %xmm0
	subsd	32(%rsp), %xmm0
	movsd	%xmm0, 48(%r13)
.LVL557:
	movsd	56(%r13), %xmm0
	subsd	24(%rsp), %xmm0
	movsd	%xmm0, 56(%r13)
.LVL558:
	movsd	64(%r13), %xmm0
	subsd	16(%rsp), %xmm0
	movsd	%xmm0, 64(%r13)
.LVL559:
.LBE422:
	.loc 1 127 0
	call	intcoord
.LVL560:
	movq	%rdx, 72(%rsp)
.LVL561:
.LBB423:
.LBB418:
	.loc 1 1126 0
	movl	%eax, %edx
.LBE418:
.LBE423:
	.loc 1 127 0
	movq	%rax, 64(%rsp)
.LBB424:
.LBB419:
	.loc 1 1126 0
	andl	$536870912, %edx
	movl	68(%rsp), %esi
.LVL562:
	movl	72(%rsp), %ecx
.LVL563:
	cmovne	%ebx, %edx
.LVL564:
	leal	2(%rdx), %edi
	testl	$536870912, %esi
	cmovne	%edi, %edx
.LVL565:
	.loc 1 1125 0
	movl	%ecx, %edi
	andl	$536870912, %edi
	.loc 1 1126 0
	cmpl	$1, %edi
	sbbl	$-1, %edx
.LVL566:
.LBE419:
.LBE424:
.LBB425:
.LBB426:
	andl	$268435456, %eax
.LVL567:
	cmovne	%ebx, %eax
.LVL568:
	andl	$268435456, %esi
.LVL569:
	leal	2(%rax), %edi
	cmovne	%edi, %eax
.LVL570:
	.loc 1 1125 0
	andl	$268435456, %ecx
.LVL571:
	.loc 1 1126 0
	cmpl	$1, %ecx
	sbbl	$-1, %eax
.LVL572:
.LBE426:
.LBE425:
	.loc 1 128 0
	leal	(%rax,%rdx,8), %eax
.LVL573:
	.loc 1 130 0
	cltd
	idivl	%r12d
.LVL574:
	.loc 1 131 0
	movslq	%eax, %rdx
	.loc 1 134 0
	movl	%eax, 40(%r13)
	.loc 1 132 0
	movq	400(%rsp,%rdx,8), %rcx
	.loc 1 133 0
	movq	%r13, 400(%rsp,%rdx,8)
	.loc 1 131 0
	addl	$1, 144(%rsp,%rdx,4)
	.loc 1 132 0
	movq	%rcx, 136(%r13)
.LBE415:
	.loc 1 121 0
	movq	128(%r13), %r13
.LVL575:
	.loc 1 121 0
	testq	%r13, %r13
	jne	.L395
.LVL576:
.L388:
	.loc 1 136 0
	movl	NumNodes(%rip), %eax
	testl	%eax, %eax
	jle	.L396
.LBB427:
.LBB428:
	.loc 2 104 0
	leaq	.LC25(%rip), %r12
.LVL577:
.LBE428:
.LBE427:
	.loc 1 136 0
	xorl	%ebx, %ebx
.LVL578:
	.p2align 4,,10
	.p2align 3
.L397:
.LBB430:
.LBB429:
	.loc 2 104 0 discriminator 3
	movl	(%r15,%rbx,4), %ecx
	movl	%ebx, %edx
	xorl	%eax, %eax
	movq	%r12, %rsi
	movl	$1, %edi
	call	__printf_chk@PLT
.LVL579:
.LBE429:
.LBE430:
	.loc 1 139 0 discriminator 3
	movq	(%r14,%rbx,8), %rax
	movq	%rax, 552(%rbp,%rbx,8)
	leal	1(%rbx), %eax
.LVL580:
	addq	$1, %rbx
	.loc 1 136 0 discriminator 3
	cmpl	%eax, NumNodes(%rip)
	jg	.L397
.LVL581:
.L396:
	.loc 1 154 0
	xorl	%ebx, %ebx
	.loc 1 153 0
	pxor	%xmm0, %xmm0
	jmp	.L398
.LVL582:
	.p2align 4,,10
	.p2align 3
.L426:
	.loc 1 160 0
	movsd	.LC26(%rip), %xmm7
	ucomisd	%xmm0, %xmm7
	jbe	.L383
.LVL583:
.L398:
	.loc 1 161 0
	movl	%ebx, %esi
	movq	%rbp, %rdi
	movsd	%xmm0, 8(%rsp)
.LVL584:
	.loc 1 164 0
	addl	$1, %ebx
.LVL585:
	.loc 1 161 0
	call	stepsystem
.LVL586:
	.loc 1 162 0
	movsd	8(%rsp), %xmm0
	.loc 1 160 0
	cmpl	$10, %ebx
	.loc 1 162 0
	addsd	.LC17(%rip), %xmm0
.LVL587:
	.loc 1 160 0
	jne	.L426
.L383:
	.loc 1 181 0
	movq	920(%rsp), %rcx
	xorq	%fs:40, %rcx
	movq	%rbp, %rax
	jne	.L427
.LVL588:
	addq	$936, %rsp
	.cfi_remember_state
	.cfi_def_cfa_offset 56
	popq	%rbx
	.cfi_def_cfa_offset 48
.LVL589:
	popq	%rbp
	.cfi_def_cfa_offset 40
	popq	%r12
	.cfi_def_cfa_offset 32
	popq	%r13
	.cfi_def_cfa_offset 24
.LVL590:
	popq	%r14
	.cfi_def_cfa_offset 16
	popq	%r15
	.cfi_def_cfa_offset 8
	ret
.LVL591:
.L427:
	.cfi_restore_state
	call	__stack_chk_fail@PLT
.LVL592:
	.cfi_endproc
.LFE23:
	.size	old_main, .-old_main
	.section	.rodata.str1.1
.LC27:
	.string	"nbody = %d, numnodes = %d\n"
	.section	.text.startup,"ax",@progbits
	.p2align 4,,15
	.globl	main
	.type	main, @function
main:
.LFB22:
	.loc 1 55 0
	.cfi_startproc
.LVL593:
	subq	$8, %rsp
	.cfi_def_cfa_offset 16
	.loc 1 59 0
	xorl	%eax, %eax
	call	dealwithargs@PLT
.LVL594:
.LBB431:
.LBB432:
	.loc 2 104 0
	movl	NumNodes(%rip), %ecx
	movl	nbody(%rip), %edx
	leaq	.LC27(%rip), %rsi
	movl	$1, %edi
	xorl	%eax, %eax
	call	__printf_chk@PLT
.LVL595:
.LBE432:
.LBE431:
	.loc 1 62 0
	xorl	%eax, %eax
	call	old_main
.LVL596:
	.loc 1 64 0
	xorl	%eax, %eax
	addq	$8, %rsp
	.cfi_def_cfa_offset 8
	ret
	.cfi_endproc
.LFE22:
	.size	main, .-main
	.section	.rodata.str1.1
.LC28:
	.string	"%2d BODY@%x %f, %f, %f\n"
.LC29:
	.string	"%2d CELL@%x %f, %f, %f\n"
.LC30:
	.string	"%2d NULL TREE\n"
	.text
	.p2align 4,,15
	.globl	ptree
	.type	ptree, @function
ptree:
.LFB49:
	.loc 1 1185 0
	.cfi_startproc
.LVL597:
	.loc 1 1189 0
	testq	%rdi, %rdi
	je	.L431
	.loc 1 1190 0
	cmpw	$1, (%rdi)
	movsd	32(%rdi), %xmm2
	movsd	24(%rdi), %xmm1
	movsd	16(%rdi), %xmm0
	je	.L439
	.loc 1 1185 0
	pushq	%r12
	.cfi_def_cfa_offset 16
	.cfi_offset 12, -16
.LBB447:
.LBB448:
.LBB449:
	.loc 2 104 0
	movl	%esi, %edx
.LBE449:
.LBE448:
.LBE447:
	.loc 1 1185 0
	pushq	%rbp
	.cfi_def_cfa_offset 24
	.cfi_offset 6, -24
	movl	%esi, %r12d
	movq	%rdi, %rbp
.LVL598:
	pushq	%rbx
	.cfi_def_cfa_offset 32
	.cfi_offset 3, -32
.LBB452:
.LBB451:
.LBB450:
	.loc 2 104 0
	leaq	.LC29(%rip), %rsi
.LVL599:
	movq	%rdi, %rcx
	movl	$3, %eax
	movl	$1, %edi
.LVL600:
	leaq	48(%rbp), %rbx
	addl	$1, %r12d
	addq	$112, %rbp
	call	__printf_chk@PLT
.LVL601:
	.p2align 4,,10
	.p2align 3
.L433:
.LBE450:
.LBE451:
	.loc 1 1199 0 discriminator 3
	movq	(%rbx), %rdi
	movl	%r12d, %esi
	addq	$8, %rbx
.LVL602:
	call	ptree
.LVL603:
	.loc 1 1197 0 discriminator 3
	cmpq	%rbp, %rbx
	jne	.L433
.LBE452:
	.loc 1 1205 0
	popq	%rbx
	.cfi_def_cfa_offset 24
	popq	%rbp
	.cfi_def_cfa_offset 16
.LVL604:
	popq	%r12
	.cfi_def_cfa_offset 8
.LVL605:
	ret
.LVL606:
	.p2align 4,,10
	.p2align 3
.L439:
	.cfi_restore 3
	.cfi_restore 6
	.cfi_restore 12
.LBB453:
.LBB454:
	.loc 2 104 0
	movl	%esi, %edx
	leaq	.LC28(%rip), %rsi
.LVL607:
	movq	%rdi, %rcx
	movl	$3, %eax
	movl	$1, %edi
.LVL608:
	jmp	__printf_chk@PLT
.LVL609:
	.p2align 4,,10
	.p2align 3
.L431:
.LBE454:
.LBE453:
.LBB455:
.LBB456:
.LBB457:
.LBB458:
	movl	%esi, %edx
	leaq	.LC30(%rip), %rsi
.LVL610:
	movl	$1, %edi
.LVL611:
	xorl	%eax, %eax
	jmp	__printf_chk@PLT
.LVL612:
.LBE458:
.LBE457:
.LBE456:
.LBE455:
	.cfi_endproc
.LFE49:
	.size	ptree, .-ptree
	.p2align 4,,15
	.globl	printtree
	.type	printtree, @function
printtree:
.LFB48:
	.loc 1 1181 0
	.cfi_startproc
.LVL613:
	.loc 1 1181 0
	xorl	%esi, %esi
	jmp	ptree
.LVL614:
	.cfi_endproc
.LFE48:
	.size	printtree, .-printtree
	.p2align 4,,15
	.globl	dis2_number
	.type	dis2_number, @function
dis2_number:
.LFB51:
	.loc 1 1225 0
	.cfi_startproc
.LVL615:
	.loc 1 1227 0
	testq	%rdi, %rdi
	je	.L449
	.loc 1 1230 0
	cmpw	$1, (%rdi)
	movl	%edx, %ecx
	je	.L443
	.loc 1 1225 0
	pushq	%r12
	.cfi_def_cfa_offset 16
	.cfi_offset 12, -16
	pushq	%rbp
	.cfi_def_cfa_offset 24
	.cfi_offset 6, -24
	leaq	112(%rdi), %rbp
	pushq	%rbx
	.cfi_def_cfa_offset 32
	.cfi_offset 3, -32
	leaq	48(%rdi), %rbx
	movl	%edx, %r12d
.LVL616:
	.p2align 4,,10
	.p2align 3
.L444:
.LBB462:
.LBB463:
	.loc 1 1242 0
	movq	(%rbx), %rdi
	movl	%r12d, %edx
	addq	$8, %rbx
.LVL617:
	call	dis2_number
.LVL618:
	.loc 1 1240 0
	cmpq	%rbp, %rbx
	.loc 1 1242 0
	movl	%eax, %esi
.LVL619:
	.loc 1 1240 0
	jne	.L444
.LBE463:
.LBE462:
	.loc 1 1248 0
	popq	%rbx
	.cfi_def_cfa_offset 24
	popq	%rbp
	.cfi_def_cfa_offset 16
.LVL620:
	popq	%r12
	.cfi_def_cfa_offset 8
.LVL621:
	ret
.LVL622:
	.p2align 4,,10
	.p2align 3
.L443:
	.cfi_restore 3
	.cfi_restore 6
	.cfi_restore 12
	.loc 1 1231 0
	addl	$1, %esi
.LVL623:
	movl	%esi, %eax
	cltd
.LVL624:
	idivl	%ecx
	movl	%eax, 44(%rdi)
.LVL625:
.L449:
	.loc 1 1248 0
	movl	%esi, %eax
	ret
	.cfi_endproc
.LFE51:
	.size	dis2_number, .-dis2_number
	.p2align 4,,15
	.globl	dis_number
	.type	dis_number, @function
dis_number:
.LFB50:
	.loc 1 1218 0
	.cfi_startproc
.LVL626:
	.loc 1 1219 0
	pxor	%xmm1, %xmm1
	pxor	%xmm0, %xmm0
	movsd	.LC13(%rip), %xmm3
	cvtsi2sd	nbody(%rip), %xmm1
	movsd	.LC20(%rip), %xmm4
	cvtsi2sd	NumNodes(%rip), %xmm0
	divsd	%xmm0, %xmm1
	movapd	%xmm1, %xmm2
	movapd	%xmm1, %xmm0
	andpd	%xmm3, %xmm2
	ucomisd	%xmm2, %xmm4
	jbe	.L453
	cvttsd2siq	%xmm1, %rax
	pxor	%xmm2, %xmm2
	movsd	.LC3(%rip), %xmm4
	andnpd	%xmm1, %xmm3
	cvtsi2sdq	%rax, %xmm2
	cmpnlesd	%xmm2, %xmm0
	andpd	%xmm4, %xmm0
	addsd	%xmm2, %xmm0
	orpd	%xmm3, %xmm0
.L453:
.LVL627:
.LBB469:
.LBB470:
	.loc 1 1227 0
	testq	%rdi, %rdi
	je	.L461
	.loc 1 1230 0
	cmpw	$1, (%rdi)
	jne	.L464
	.loc 1 1231 0
	movl	$0, 44(%rdi)
.LVL628:
.LBE470:
.LBE469:
	.loc 1 1222 0
	ret
.LVL629:
	.p2align 4,,10
	.p2align 3
.L461:
	rep ret
	.p2align 4,,10
	.p2align 3
.L464:
	.loc 1 1219 0
	cvttsd2si	%xmm0, %r9d
	leaq	48(%rdi), %r8
	leaq	112(%rdi), %r10
	.loc 1 1218 0
	subq	$8, %rsp
	.cfi_def_cfa_offset 16
	.loc 1 1219 0
	movl	$-1, %eax
.LVL630:
	.p2align 4,,10
	.p2align 3
.L457:
.LBB474:
.LBB473:
.LBB471:
.LBB472:
	.loc 1 1242 0
	movq	(%r8), %rdi
	movl	%r9d, %edx
	movl	%eax, %esi
	call	dis2_number
.LVL631:
	addq	$8, %r8
	.loc 1 1240 0
	cmpq	%r10, %r8
	jne	.L457
.LBE472:
.LBE471:
.LBE473:
.LBE474:
	.loc 1 1222 0
	addq	$8, %rsp
	.cfi_def_cfa_offset 8
	ret
	.cfi_endproc
.LFE50:
	.size	dis_number, .-dis_number
	.globl	bp_free_list
	.bss
	.align 8
	.type	bp_free_list, @object
	.size	bp_free_list, 8
bp_free_list:
	.zero	8
	.globl	cp_free_list
	.align 8
	.type	cp_free_list, @object
	.size	cp_free_list, 8
cp_free_list:
	.zero	8
	.comm	arg1,4,4
	.comm	nbody,4,4
	.comm	xxxrsize,8,8
	.comm	rmin,24,16
	.comm	root,8,8
	.comm	NumNodes,4,4
	.section	.rodata.cst8,"aM",@progbits,8
	.align 8
.LC1:
	.long	0
	.long	0
	.align 8
.LC2:
	.long	0
	.long	1079951360
	.align 8
.LC3:
	.long	0
	.long	1072693248
	.align 8
.LC4:
	.long	3642132267
	.long	1072691150
	.align 8
.LC5:
	.long	1431655765
	.long	-1075489451
	.align 8
.LC6:
	.long	0
	.long	1074790400
	.align 8
.LC7:
	.long	2576980378
	.long	1069128089
	.align 8
.LC8:
	.long	0
	.long	1074528256
	.align 8
.LC9:
	.long	0
	.long	1070596096
	.align 8
.LC10:
	.long	1719614413
	.long	1073127582
	.align 8
.LC11:
	.long	2777654034
	.long	1073010903
	.align 8
.LC12:
	.long	0
	.long	-1074790400
	.section	.rodata.cst16,"aM",@progbits,16
	.align 16
.LC13:
	.long	4294967295
	.long	2147483647
	.long	0
	.long	0
	.section	.rodata.cst8
	.align 8
.LC14:
	.long	0
	.long	1076101120
	.align 8
.LC15:
	.long	0
	.long	1086556160
	.align 8
.LC16:
	.long	2576980378
	.long	1064933785
	.align 8
.LC17:
	.long	2576980378
	.long	1065982361
	.align 8
.LC18:
	.long	1202590844
	.long	1063549665
	.align 8
.LC19:
	.long	0
	.long	1104150528
	.align 8
.LC20:
	.long	0
	.long	1127219200
	.align 8
.LC21:
	.long	0
	.long	1083129856
	.align 8
.LC22:
	.long	0
	.long	1071644672
	.align 8
.LC23:
	.long	0
	.long	-1073741824
	.align 8
.LC26:
	.long	1546188227
	.long	1073742479
	.text
.Letext0:
	.file 3 "/usr/lib/gcc/x86_64-linux-gnu/7/include/stddef.h"
	.file 4 "/usr/include/x86_64-linux-gnu/bits/types.h"
	.file 5 "/usr/include/x86_64-linux-gnu/bits/libio.h"
	.file 6 "/usr/include/stdio.h"
	.file 7 "../olden/bh/src/defs.h"
	.file 8 "../olden/bh/src/stdinc.h"
	.file 9 "../olden/bh/src/vectmath.h"
	.file 10 "/usr/include/stdlib.h"
	.file 11 "/usr/include/x86_64-linux-gnu/bits/mathcalls.h"
	.file 12 "<built-in>"
	.section	.note.GNU-stack,"",@progbits
