	.file	"tsp.c"
	.text
.Ltext0:
	.p2align 4,,15
	.type	makelist, @function
makelist:
.LFB1:
	.file 1 "../olden/tsp/src/tsp.c"
	.loc 1 27 0
	.cfi_startproc
.LVL0:
	pushq	%rbp
	.cfi_def_cfa_offset 16
	.cfi_offset 6, -16
	pushq	%rbx
	.cfi_def_cfa_offset 24
	.cfi_offset 3, -24
	subq	$8, %rsp
	.cfi_def_cfa_offset 32
	.loc 1 32 0
	testq	%rdi, %rdi
	je	.L8
	movq	%rdi, %rbx
	.loc 1 34 0
	movq	24(%rdi), %rdi
.LVL1:
	call	makelist
.LVL2:
	.loc 1 35 0
	movq	32(%rbx), %rdi
	.loc 1 34 0
	movq	%rax, %rbp
.LVL3:
	.loc 1 35 0
	call	makelist
.LVL4:
	.loc 1 37 0
	testq	%rax, %rax
	je	.L3
.LVL5:
	.loc 1 37 0 is_stmt 0 discriminator 1
	movq	32(%rbx), %rdx
	.loc 1 38 0 is_stmt 1 discriminator 1
	testq	%rbp, %rbp
	.loc 1 37 0 discriminator 1
	movq	%rbx, 40(%rdx)
	.loc 1 38 0 discriminator 1
	je	.L11
.LVL6:
	.loc 1 38 0 is_stmt 0
	movq	24(%rbx), %rdx
.LVL7:
.L6:
	.loc 1 38 0 discriminator 5
	movq	%rax, 40(%rdx)
.LVL8:
.L5:
	.loc 1 39 0 is_stmt 1
	movq	$0, 40(%rbx)
	.loc 1 42 0
	addq	$8, %rsp
	.cfi_remember_state
	.cfi_def_cfa_offset 24
	movq	%rbp, %rax
	popq	%rbx
	.cfi_def_cfa_offset 16
.LVL9:
	popq	%rbp
	.cfi_def_cfa_offset 8
.LVL10:
	ret
.LVL11:
	.p2align 4,,10
	.p2align 3
.L3:
	.cfi_restore_state
	.loc 1 38 0
	testq	%rbp, %rbp
	je	.L12
.LVL12:
	movq	24(%rbx), %rdx
.LVL13:
	movq	%rbx, %rax
.LVL14:
	jmp	.L6
.LVL15:
	.p2align 4,,10
	.p2align 3
.L8:
	.loc 1 32 0
	xorl	%ebp, %ebp
	.loc 1 42 0
	addq	$8, %rsp
	.cfi_remember_state
	.cfi_def_cfa_offset 24
	movq	%rbp, %rax
	popq	%rbx
	.cfi_def_cfa_offset 16
	popq	%rbp
	.cfi_def_cfa_offset 8
	ret
.LVL16:
	.p2align 4,,10
	.p2align 3
.L11:
	.cfi_restore_state
	.loc 1 38 0
	movq	%rax, %rbp
.LVL17:
	jmp	.L5
.LVL18:
	.p2align 4,,10
	.p2align 3
.L12:
	movq	%rbx, %rbp
.LVL19:
	jmp	.L5
	.cfi_endproc
.LFE1:
	.size	makelist, .-makelist
	.p2align 4,,15
	.globl	tsp
	.type	tsp, @function
tsp:
.LFB5:
	.loc 1 266 0
	.cfi_startproc
.LVL20:
	pushq	%r15
	.cfi_def_cfa_offset 16
	.cfi_offset 15, -16
	pushq	%r14
	.cfi_def_cfa_offset 24
	.cfi_offset 14, -24
	pushq	%r13
	.cfi_def_cfa_offset 32
	.cfi_offset 13, -32
	pushq	%r12
	.cfi_def_cfa_offset 40
	.cfi_offset 12, -40
	pushq	%rbp
	.cfi_def_cfa_offset 48
	.cfi_offset 6, -48
	pushq	%rbx
	.cfi_def_cfa_offset 56
	.cfi_offset 3, -56
	movq	%rdi, %rbx
.LVL21:
	subq	$72, %rsp
	.cfi_def_cfa_offset 128
	.loc 1 275 0
	cmpl	%esi, (%rdi)
	jg	.L14
.LVL22:
.LBB138:
.LBB139:
	.loc 1 75 0
	call	makelist
.LVL23:
	.loc 1 80 0
	movq	40(%rax), %rbp
.LVL24:
	.loc 1 82 0
	movq	%rax, 48(%rax)
	.loc 1 81 0
	movq	%rax, 40(%rax)
	.loc 1 84 0
	testq	%rbp, %rbp
	je	.L13
	pxor	%xmm3, %xmm3
.LVL25:
	.p2align 4,,10
	.p2align 3
.L28:
.LBB140:
.LBB141:
	.loc 1 22 0
	movsd	8(%rbp), %xmm0
.LBE141:
.LBE140:
	.loc 1 85 0
	movq	40(%rbp), %r14
.LVL26:
.LBB144:
.LBB142:
	.loc 1 22 0
	movsd	16(%rbp), %xmm1
	subsd	8(%rax), %xmm0
.LVL27:
	subsd	16(%rax), %xmm1
	mulsd	%xmm0, %xmm0
	mulsd	%xmm1, %xmm1
	addsd	%xmm1, %xmm0
	ucomisd	%xmm0, %xmm3
	sqrtsd	%xmm0, %xmm2
	ja	.L96
.LVL28:
.L16:
.LBE142:
.LBE144:
	.loc 1 88 0
	movq	40(%rax), %rbx
.LVL29:
	movq	%rax, %r12
	cmpq	%rbx, %rax
	je	.L17
.LVL30:
	.p2align 4,,10
	.p2align 3
.L20:
.LBB145:
.LBB146:
	.loc 1 22 0
	movsd	8(%rbx), %xmm0
	movsd	16(%rbx), %xmm1
	subsd	8(%rbp), %xmm0
	subsd	16(%rbp), %xmm1
	mulsd	%xmm0, %xmm0
	mulsd	%xmm1, %xmm1
	addsd	%xmm1, %xmm0
	ucomisd	%xmm0, %xmm3
	sqrtsd	%xmm0, %xmm1
	ja	.L97
.LVL31:
.L18:
.LBE146:
.LBE145:
	.loc 1 90 0
	ucomisd	%xmm1, %xmm2
	minsd	%xmm2, %xmm1
	cmova	%rbx, %r12
.LVL32:
	.loc 1 88 0
	movq	40(%rbx), %rbx
.LVL33:
	.loc 1 90 0
	movapd	%xmm1, %xmm2
	.loc 1 88 0
	cmpq	%rbx, %rax
	jne	.L20
.LVL34:
.L17:
	.loc 1 97 0
	movsd	8(%r12), %xmm1
	.loc 1 95 0
	movq	40(%r12), %rbx
.LVL35:
	.loc 1 97 0
	movsd	16(%r12), %xmm2
	.loc 1 96 0
	movq	48(%r12), %r13
.LVL36:
.LBB148:
.LBB149:
	.loc 1 22 0
	movapd	%xmm1, %xmm0
	movapd	%xmm2, %xmm4
	subsd	8(%rbx), %xmm0
	subsd	16(%rbx), %xmm4
	mulsd	%xmm0, %xmm0
	mulsd	%xmm4, %xmm4
	addsd	%xmm4, %xmm0
	ucomisd	%xmm0, %xmm3
	sqrtsd	%xmm0, %xmm4
	ja	.L98
.LVL37:
.L21:
.LBE149:
.LBE148:
.LBB151:
.LBB152:
	subsd	8(%r13), %xmm1
	subsd	16(%r13), %xmm2
	mulsd	%xmm1, %xmm1
	mulsd	%xmm2, %xmm2
	addsd	%xmm2, %xmm1
	ucomisd	%xmm1, %xmm3
	sqrtsd	%xmm1, %xmm6
	ja	.L99
.LVL38:
.L22:
.LBE152:
.LBE151:
	.loc 1 99 0
	movsd	8(%rbp), %xmm1
.LVL39:
	movsd	16(%rbp), %xmm2
.LVL40:
.LBB154:
.LBB155:
	.loc 1 22 0
	movapd	%xmm1, %xmm0
	movapd	%xmm2, %xmm5
	subsd	8(%rbx), %xmm0
	subsd	16(%rbx), %xmm5
	mulsd	%xmm0, %xmm0
	mulsd	%xmm5, %xmm5
	addsd	%xmm5, %xmm0
	ucomisd	%xmm0, %xmm3
	sqrtsd	%xmm0, %xmm5
	ja	.L100
.LVL41:
.L23:
.LBE155:
.LBE154:
.LBB157:
.LBB158:
	subsd	8(%r13), %xmm1
	subsd	16(%r13), %xmm2
	mulsd	%xmm1, %xmm1
	mulsd	%xmm2, %xmm2
	addsd	%xmm1, %xmm2
	ucomisd	%xmm2, %xmm3
	sqrtsd	%xmm2, %xmm1
	ja	.L101
.LVL42:
.L24:
.LBE158:
.LBE157:
	.loc 1 101 0
	subsd	%xmm6, %xmm1
	subsd	%xmm4, %xmm5
	ucomisd	%xmm1, %xmm5
	jbe	.L92
	.loc 1 103 0
	movq	%rbp, 40(%r13)
	.loc 1 104 0
	movq	%r12, 40(%rbp)
	.loc 1 105 0
	movq	%r13, 48(%rbp)
	.loc 1 106 0
	movq	%rbp, 48(%r12)
.L27:
.LVL43:
	.loc 1 84 0
	testq	%r14, %r14
	movq	%r14, %rbp
.LVL44:
	jne	.L28
.LVL45:
.L13:
.LBE139:
.LBE138:
	.loc 1 291 0
	addq	$72, %rsp
	.cfi_remember_state
	.cfi_def_cfa_offset 56
	popq	%rbx
	.cfi_def_cfa_offset 48
	popq	%rbp
	.cfi_def_cfa_offset 40
	popq	%r12
	.cfi_def_cfa_offset 32
	popq	%r13
	.cfi_def_cfa_offset 24
	popq	%r14
	.cfi_def_cfa_offset 16
	popq	%r15
	.cfi_def_cfa_offset 8
	ret
.LVL46:
	.p2align 4,,10
	.p2align 3
.L92:
	.cfi_restore_state
.LBB169:
.LBB166:
	.loc 1 109 0
	movq	%rbp, 48(%rbx)
	.loc 1 110 0
	movq	%rbx, 40(%rbp)
	.loc 1 111 0
	movq	%rbp, 40(%r12)
	.loc 1 112 0
	movq	%r12, 48(%rbp)
	jmp	.L27
.LVL47:
	.p2align 4,,10
	.p2align 3
.L14:
.LBE166:
.LBE169:
	.loc 1 273 0
	movl	%edx, %r13d
	.loc 1 277 0
	movq	32(%rdi), %r14
	.loc 1 279 0
	movq	24(%rdi), %rdi
	.loc 1 273 0
	shrl	$31, %r13d
	movl	%esi, %ebp
	addl	%edx, %r13d
	sarl	%r13d
.LVL48:
	.loc 1 279 0
	movl	%r13d, %edx
.LVL49:
	call	tsp
.LVL50:
	.loc 1 283 0
	movl	%r13d, %edx
	movl	%ebp, %esi
	movq	%r14, %rdi
	.loc 1 279 0
	movq	%rax, %r12
.LVL51:
	.loc 1 283 0
	call	tsp
.LVL52:
.LBB170:
.LBB171:
.LBB172:
.LBB173:
	.loc 1 22 0
	movsd	8(%rbx), %xmm0
.LBE173:
.LBE172:
.LBE171:
.LBE170:
	.loc 1 283 0
	movq	%rax, %r15
.LVL53:
.LBB246:
.LBB242:
.LBB176:
.LBB174:
	.loc 1 22 0
	movsd	16(%rbx), %xmm1
	subsd	8(%r12), %xmm0
.LVL54:
	pxor	%xmm3, %xmm3
	subsd	16(%r12), %xmm1
	mulsd	%xmm0, %xmm0
	mulsd	%xmm1, %xmm1
	addsd	%xmm1, %xmm0
	ucomisd	%xmm0, %xmm3
	sqrtsd	%xmm0, %xmm2
	ja	.L102
.LVL55:
.L29:
.LBE174:
.LBE176:
	.loc 1 133 0
	movq	40(%r12), %rbp
.LVL56:
	movq	%r12, %r13
	cmpq	%rbp, %r12
	je	.L30
.LVL57:
	.p2align 4,,10
	.p2align 3
.L33:
.LBB177:
.LBB178:
	.loc 1 22 0
	movsd	8(%rbp), %xmm0
	movsd	16(%rbp), %xmm1
	subsd	8(%rbx), %xmm0
	subsd	16(%rbx), %xmm1
	mulsd	%xmm0, %xmm0
	mulsd	%xmm1, %xmm1
	addsd	%xmm1, %xmm0
	ucomisd	%xmm0, %xmm3
	sqrtsd	%xmm0, %xmm1
	ja	.L103
.LVL58:
.L31:
.LBE178:
.LBE177:
	.loc 1 135 0
	ucomisd	%xmm1, %xmm2
	minsd	%xmm2, %xmm1
	cmova	%rbp, %r13
.LVL59:
	.loc 1 133 0
	movq	40(%rbp), %rbp
.LVL60:
	.loc 1 135 0
	movapd	%xmm1, %xmm2
	.loc 1 133 0
	cmpq	%rbp, %r12
	jne	.L33
.LVL61:
.L30:
	.loc 1 142 0
	movsd	8(%r13), %xmm1
	.loc 1 140 0
	movq	40(%r13), %r14
.LVL62:
	.loc 1 142 0
	movsd	16(%r13), %xmm4
	.loc 1 141 0
	movq	48(%r13), %rbp
.LVL63:
.LBB180:
.LBB181:
	.loc 1 22 0
	movapd	%xmm1, %xmm0
	movapd	%xmm4, %xmm5
	subsd	8(%r14), %xmm0
	subsd	16(%r14), %xmm5
	mulsd	%xmm0, %xmm0
	mulsd	%xmm5, %xmm5
	addsd	%xmm5, %xmm0
	ucomisd	%xmm0, %xmm3
	sqrtsd	%xmm0, %xmm6
	ja	.L104
.LVL64:
.L34:
.LBE181:
.LBE180:
.LBB183:
.LBB184:
	subsd	8(%rbp), %xmm1
	subsd	16(%rbp), %xmm4
	mulsd	%xmm1, %xmm1
	mulsd	%xmm4, %xmm4
	addsd	%xmm4, %xmm1
	ucomisd	%xmm1, %xmm3
	sqrtsd	%xmm1, %xmm8
	ja	.L105
.LVL65:
.L35:
.LBE184:
.LBE183:
	.loc 1 144 0
	movsd	8(%rbx), %xmm1
.LVL66:
	movsd	16(%rbx), %xmm4
.LVL67:
.LBB186:
.LBB187:
	.loc 1 22 0
	movapd	%xmm1, %xmm0
	movapd	%xmm4, %xmm5
	subsd	8(%r14), %xmm0
	subsd	16(%r14), %xmm5
	mulsd	%xmm0, %xmm0
	mulsd	%xmm5, %xmm5
	addsd	%xmm5, %xmm0
	ucomisd	%xmm0, %xmm3
	sqrtsd	%xmm0, %xmm5
	ja	.L106
.LVL68:
.L36:
.LBE187:
.LBE186:
.LBB189:
.LBB190:
	movapd	%xmm1, %xmm0
	movapd	%xmm4, %xmm7
	subsd	8(%rbp), %xmm0
	subsd	16(%rbp), %xmm7
	mulsd	%xmm0, %xmm0
	mulsd	%xmm7, %xmm7
	addsd	%xmm7, %xmm0
	ucomisd	%xmm0, %xmm3
	sqrtsd	%xmm0, %xmm7
	ja	.L107
.LVL69:
.L37:
.LBE190:
.LBE189:
	.loc 1 146 0
	movapd	%xmm7, %xmm0
	movapd	%xmm5, %xmm11
	subsd	%xmm8, %xmm0
	subsd	%xmm6, %xmm11
	ucomisd	%xmm0, %xmm11
	ja	.L108
.LVL70:
.L38:
.LBB192:
.LBB193:
	.loc 1 22 0
	subsd	8(%r15), %xmm1
	subsd	16(%r15), %xmm4
	mulsd	%xmm1, %xmm1
	mulsd	%xmm4, %xmm4
	addsd	%xmm4, %xmm1
	ucomisd	%xmm1, %xmm3
	sqrtsd	%xmm1, %xmm4
	ja	.L109
.LVL71:
.L40:
.LBE193:
.LBE192:
	.loc 1 164 0
	movq	40(%r15), %rbp
.LVL72:
	movq	%r15, %r12
.LVL73:
	cmpq	%rbp, %r15
	je	.L41
.LVL74:
	.p2align 4,,10
	.p2align 3
.L44:
.LBB195:
.LBB196:
	.loc 1 22 0
	movsd	8(%rbp), %xmm0
	movsd	16(%rbp), %xmm1
	subsd	8(%rbx), %xmm0
	subsd	16(%rbx), %xmm1
	mulsd	%xmm0, %xmm0
	mulsd	%xmm1, %xmm1
	addsd	%xmm1, %xmm0
	ucomisd	%xmm0, %xmm3
	sqrtsd	%xmm0, %xmm1
	ja	.L110
.LVL75:
.L42:
.LBE196:
.LBE195:
	.loc 1 166 0
	ucomisd	%xmm1, %xmm4
	minsd	%xmm4, %xmm1
	cmova	%rbp, %r12
.LVL76:
	.loc 1 164 0
	movq	40(%rbp), %rbp
.LVL77:
	.loc 1 166 0
	movapd	%xmm1, %xmm4
	.loc 1 164 0
	cmpq	%rbp, %r15
	jne	.L44
.LVL78:
.L41:
	.loc 1 173 0
	movsd	8(%r12), %xmm1
	.loc 1 171 0
	movq	40(%r12), %rbp
.LVL79:
	.loc 1 173 0
	movsd	16(%r12), %xmm6
	.loc 1 172 0
	movq	48(%r12), %r15
.LVL80:
.LBB198:
.LBB199:
	.loc 1 22 0
	movapd	%xmm1, %xmm0
	movapd	%xmm6, %xmm7
	subsd	8(%rbp), %xmm0
	subsd	16(%rbp), %xmm7
	mulsd	%xmm0, %xmm0
	mulsd	%xmm7, %xmm7
	addsd	%xmm7, %xmm0
	ucomisd	%xmm0, %xmm3
	sqrtsd	%xmm0, %xmm8
	ja	.L111
.LVL81:
.L45:
.LBE199:
.LBE198:
.LBB201:
.LBB202:
	subsd	8(%r15), %xmm1
	subsd	16(%r15), %xmm6
	mulsd	%xmm1, %xmm1
	mulsd	%xmm6, %xmm6
	addsd	%xmm6, %xmm1
	ucomisd	%xmm1, %xmm3
	sqrtsd	%xmm1, %xmm9
	ja	.L112
.LVL82:
.L46:
.LBE202:
.LBE201:
	.loc 1 175 0
	movsd	8(%rbx), %xmm1
.LVL83:
	movsd	16(%rbx), %xmm7
.LVL84:
.LBB204:
.LBB205:
	.loc 1 22 0
	movapd	%xmm1, %xmm0
	movapd	%xmm7, %xmm6
	subsd	8(%rbp), %xmm0
	subsd	16(%rbp), %xmm6
	mulsd	%xmm0, %xmm0
	mulsd	%xmm6, %xmm6
	addsd	%xmm6, %xmm0
	ucomisd	%xmm0, %xmm3
	sqrtsd	%xmm0, %xmm6
	ja	.L113
.LVL85:
.L47:
.LBE205:
.LBE204:
.LBB207:
.LBB208:
	subsd	8(%r15), %xmm1
	subsd	16(%r15), %xmm7
	mulsd	%xmm1, %xmm1
	mulsd	%xmm7, %xmm7
	addsd	%xmm1, %xmm7
	ucomisd	%xmm7, %xmm3
	sqrtsd	%xmm7, %xmm1
	ja	.L114
.LVL86:
.L48:
.LBE208:
.LBE207:
	.loc 1 177 0
	movapd	%xmm1, %xmm0
	movapd	%xmm6, %xmm7
	subsd	%xmm9, %xmm0
	subsd	%xmm8, %xmm7
	ucomisd	%xmm0, %xmm7
	ja	.L115
.LVL87:
.L49:
	.loc 1 196 0
	movsd	8(%r14), %xmm1
.LVL88:
	movsd	16(%r14), %xmm7
.LVL89:
.LBB210:
.LBB211:
	.loc 1 22 0
	movapd	%xmm1, %xmm0
	movapd	%xmm7, %xmm8
	subsd	8(%rbp), %xmm0
	subsd	16(%rbp), %xmm8
	mulsd	%xmm0, %xmm0
	mulsd	%xmm8, %xmm8
	addsd	%xmm8, %xmm0
	ucomisd	%xmm0, %xmm3
	sqrtsd	%xmm0, %xmm8
	ja	.L116
.LVL90:
.L51:
.LBE211:
.LBE210:
.LBB213:
.LBB214:
	subsd	8(%r12), %xmm1
	subsd	16(%r12), %xmm7
	mulsd	%xmm1, %xmm1
	mulsd	%xmm7, %xmm7
	addsd	%xmm7, %xmm1
	ucomisd	%xmm1, %xmm3
	sqrtsd	%xmm1, %xmm10
	ja	.L117
.LVL91:
.L52:
.LBE214:
.LBE213:
	.loc 1 198 0
	movsd	8(%r13), %xmm1
.LVL92:
	movsd	16(%r13), %xmm7
.LVL93:
.LBB216:
.LBB217:
	.loc 1 22 0
	movapd	%xmm1, %xmm0
	movapd	%xmm7, %xmm9
	subsd	8(%rbp), %xmm0
	subsd	16(%rbp), %xmm9
	mulsd	%xmm0, %xmm0
	mulsd	%xmm9, %xmm9
	addsd	%xmm9, %xmm0
	ucomisd	%xmm0, %xmm3
	sqrtsd	%xmm0, %xmm9
	ja	.L118
.LVL94:
.L53:
.LBE217:
.LBE216:
.LBB219:
.LBB220:
	subsd	8(%r12), %xmm1
	subsd	16(%r12), %xmm7
	mulsd	%xmm1, %xmm1
	mulsd	%xmm7, %xmm7
	addsd	%xmm1, %xmm7
	ucomisd	%xmm7, %xmm3
	sqrtsd	%xmm7, %xmm1
	ja	.L119
.LVL95:
.L54:
.LBE220:
.LBE219:
	.loc 1 201 0
	movapd	%xmm2, %xmm0
	.loc 1 206 0
	movl	$2, %eax
	.loc 1 204 0
	addsd	%xmm6, %xmm2
	.loc 1 201 0
	addsd	%xmm4, %xmm0
	.loc 1 204 0
	addsd	%xmm10, %xmm2
	.loc 1 201 0
	addsd	%xmm0, %xmm8
.LVL96:
	.loc 1 205 0
	ucomisd	%xmm2, %xmm8
	jbe	.L120
.LVL97:
.L55:
	.loc 1 210 0
	addsd	%xmm5, %xmm4
	addsd	%xmm6, %xmm5
	addsd	%xmm9, %xmm4
.LVL98:
	addsd	%xmm1, %xmm5
	.loc 1 211 0
	ucomisd	%xmm4, %xmm2
	jbe	.L93
.LVL99:
	.loc 1 217 0
	ucomisd	%xmm5, %xmm4
	ja	.L58
	.loc 1 243 0
	movq	%rbx, 40(%r12)
	.loc 1 248 0
	movq	%rbx, %rax
	.loc 1 244 0
	movq	%r12, 48(%rbx)
	.loc 1 245 0
	movq	%r14, 40(%rbx)
	.loc 1 246 0
	movq	%rbx, 48(%r14)
	.loc 1 247 0
	movq	%rbp, 40(%r13)
	.loc 1 248 0
	movq	%r13, 48(%rbp)
	jmp	.L13
.LVL100:
.L97:
	movsd	%xmm3, 24(%rsp)
	movq	%rax, 16(%rsp)
	movsd	%xmm2, 8(%rsp)
	movsd	%xmm1, (%rsp)
.LBE242:
.LBE246:
.LBB247:
.LBB167:
.LBB160:
.LBB147:
	.loc 1 22 0
	call	sqrt@PLT
.LVL101:
	movsd	24(%rsp), %xmm3
	movq	16(%rsp), %rax
	movsd	8(%rsp), %xmm2
	movsd	(%rsp), %xmm1
	jmp	.L18
.LVL102:
.L93:
.LBE147:
.LBE160:
.LBE167:
.LBE247:
.LBB248:
.LBB243:
	.loc 1 217 0
	ucomisd	%xmm5, %xmm2
	ja	.L58
	.loc 1 220 0
	cmpl	$2, %eax
	je	.L61
.LVL103:
.LBB222:
.LBB223:
	.loc 1 51 0
	movq	48(%rbp), %rsi
.LVL104:
	.loc 1 52 0
	movq	$0, 40(%rsi)
	.loc 1 56 0
	movq	40(%rbp), %rax
.LVL105:
	.loc 1 53 0
	movq	$0, 48(%rbp)
.LVL106:
	.loc 1 56 0
	testq	%rax, %rax
	je	.L62
	movq	%rbp, %rdx
	jmp	.L63
.LVL107:
.L73:
	movq	%rcx, %rax
.LVL108:
.L63:
	.loc 1 57 0
	movq	40(%rax), %rcx
.LVL109:
	.loc 1 58 0
	movq	%rdx, 40(%rax)
	.loc 1 59 0
	movq	%rax, 48(%rdx)
.LVL110:
	movq	%rax, %rdx
	.loc 1 56 0
	testq	%rcx, %rcx
	jne	.L73
.LVL111:
.L62:
	.loc 1 62 0
	movq	%rbp, 48(%rsi)
.LVL112:
.LBE223:
.LBE222:
	.loc 1 230 0
	movq	%rbx, %rax
	.loc 1 225 0
	movq	%rbx, 40(%r13)
	.loc 1 226 0
	movq	%r13, 48(%rbx)
	.loc 1 227 0
	movq	%r12, 40(%rbx)
	.loc 1 228 0
	movq	%rbx, 48(%r12)
	.loc 1 229 0
	movq	%r14, 40(%rbp)
	.loc 1 230 0
	movq	%rbp, 48(%r14)
	jmp	.L13
.LVL113:
.L120:
	.loc 1 201 0
	movapd	%xmm8, %xmm2
.LVL114:
	.loc 1 202 0
	movl	$1, %eax
	jmp	.L55
.LVL115:
.L115:
	.loc 1 177 0
	movapd	%xmm4, %xmm6
	movq	%r12, %rbp
.LVL116:
	.loc 1 182 0
	movapd	%xmm1, %xmm4
	.loc 1 177 0
	movq	%r15, %r12
	jmp	.L49
.LVL117:
.L108:
	.loc 1 146 0
	movapd	%xmm2, %xmm5
	movq	%r13, %r14
.LVL118:
	.loc 1 151 0
	movapd	%xmm7, %xmm2
	.loc 1 146 0
	movq	%rbp, %r13
	jmp	.L38
.LVL119:
.L58:
.LBB224:
.LBB225:
	.loc 1 51 0
	movq	48(%r14), %rsi
.LVL120:
	.loc 1 52 0
	movq	$0, 40(%rsi)
	.loc 1 56 0
	movq	40(%r14), %rax
	.loc 1 53 0
	movq	$0, 48(%r14)
.LVL121:
	.loc 1 56 0
	testq	%rax, %rax
	je	.L64
	movq	%r14, %rdx
	jmp	.L65
.LVL122:
	.p2align 4,,10
	.p2align 3
.L74:
	movq	%rcx, %rax
.LVL123:
.L65:
	.loc 1 57 0
	movq	40(%rax), %rcx
.LVL124:
	.loc 1 58 0
	movq	%rdx, 40(%rax)
	.loc 1 59 0
	movq	%rax, 48(%rdx)
.LVL125:
	movq	%rax, %rdx
	.loc 1 56 0
	testq	%rcx, %rcx
	jne	.L74
.LVL126:
.L64:
	.loc 1 62 0
	movq	%r14, 48(%rsi)
.LVL127:
.LBE225:
.LBE224:
	.loc 1 254 0
	movq	%rbx, 40(%r14)
	.loc 1 259 0
	movq	%rbx, %rax
	.loc 1 255 0
	movq	%r14, 48(%rbx)
	.loc 1 256 0
	movq	%rbp, 40(%rbx)
	.loc 1 257 0
	movq	%rbx, 48(%rbp)
	.loc 1 258 0
	movq	%r13, 40(%r12)
	.loc 1 259 0
	movq	%r12, 48(%r13)
.LBE243:
.LBE248:
	.loc 1 291 0
	addq	$72, %rsp
	.cfi_remember_state
	.cfi_def_cfa_offset 56
	popq	%rbx
	.cfi_def_cfa_offset 48
.LVL128:
	popq	%rbp
	.cfi_def_cfa_offset 40
.LVL129:
	popq	%r12
	.cfi_def_cfa_offset 32
.LVL130:
	popq	%r13
	.cfi_def_cfa_offset 24
.LVL131:
	popq	%r14
	.cfi_def_cfa_offset 16
.LVL132:
	popq	%r15
	.cfi_def_cfa_offset 8
.LVL133:
	ret
.LVL134:
.L61:
	.cfi_restore_state
.LBB249:
.LBB244:
	.loc 1 234 0
	movq	%rbx, 40(%r13)
	.loc 1 239 0
	movq	%rbx, %rax
.LVL135:
	.loc 1 235 0
	movq	%r13, 48(%rbx)
	.loc 1 236 0
	movq	%rbp, 40(%rbx)
	.loc 1 237 0
	movq	%rbx, 48(%rbp)
	.loc 1 238 0
	movq	%r14, 40(%r12)
	.loc 1 239 0
	movq	%r12, 48(%r14)
	jmp	.L13
.LVL136:
.L96:
	movsd	%xmm3, 16(%rsp)
	movq	%rax, 8(%rsp)
	movsd	%xmm2, (%rsp)
.LBE244:
.LBE249:
.LBB250:
.LBB168:
.LBB161:
.LBB143:
	.loc 1 22 0
	call	sqrt@PLT
.LVL137:
	movsd	16(%rsp), %xmm3
	movq	8(%rsp), %rax
	movsd	(%rsp), %xmm2
	jmp	.L16
.LVL138:
.L101:
.LBE143:
.LBE161:
.LBB162:
.LBB159:
	movapd	%xmm2, %xmm0
	movsd	%xmm3, 40(%rsp)
	movq	%rax, 32(%rsp)
	movsd	%xmm1, 24(%rsp)
	movsd	%xmm5, 16(%rsp)
	movsd	%xmm6, 8(%rsp)
	movsd	%xmm4, (%rsp)
	call	sqrt@PLT
.LVL139:
	movsd	40(%rsp), %xmm3
	movq	32(%rsp), %rax
	movsd	24(%rsp), %xmm1
	movsd	16(%rsp), %xmm5
	movsd	8(%rsp), %xmm6
	movsd	(%rsp), %xmm4
	jmp	.L24
.LVL140:
.L100:
	movsd	%xmm3, 32(%rsp)
	movq	%rax, 24(%rsp)
	movsd	%xmm5, 16(%rsp)
	movsd	%xmm6, 8(%rsp)
	movsd	%xmm4, (%rsp)
.LBE159:
.LBE162:
.LBB163:
.LBB156:
	call	sqrt@PLT
.LVL141:
	movsd	8(%rbp), %xmm1
	movsd	16(%rbp), %xmm2
	movq	24(%rsp), %rax
	movsd	32(%rsp), %xmm3
	movsd	16(%rsp), %xmm5
	movsd	8(%rsp), %xmm6
	movsd	(%rsp), %xmm4
	jmp	.L23
.LVL142:
.L99:
.LBE156:
.LBE163:
.LBB164:
.LBB153:
	movapd	%xmm1, %xmm0
	movsd	%xmm3, 24(%rsp)
	movq	%rax, 16(%rsp)
	movsd	%xmm6, 8(%rsp)
	movsd	%xmm4, (%rsp)
	call	sqrt@PLT
.LVL143:
	movsd	24(%rsp), %xmm3
	movq	16(%rsp), %rax
	movsd	8(%rsp), %xmm6
	movsd	(%rsp), %xmm4
	jmp	.L22
.LVL144:
.L98:
	movsd	%xmm3, 16(%rsp)
	movq	%rax, 8(%rsp)
	movsd	%xmm4, (%rsp)
.LBE153:
.LBE164:
.LBB165:
.LBB150:
	call	sqrt@PLT
.LVL145:
	movsd	8(%r12), %xmm1
	movsd	16(%r12), %xmm2
	movq	8(%rsp), %rax
	movsd	16(%rsp), %xmm3
	movsd	(%rsp), %xmm4
	jmp	.L21
.LVL146:
.L103:
	movsd	%xmm3, 16(%rsp)
	movsd	%xmm2, 8(%rsp)
	movsd	%xmm1, (%rsp)
.LBE150:
.LBE165:
.LBE168:
.LBE250:
.LBB251:
.LBB245:
.LBB226:
.LBB179:
	call	sqrt@PLT
.LVL147:
	movsd	16(%rsp), %xmm3
	movsd	8(%rsp), %xmm2
	movsd	(%rsp), %xmm1
	jmp	.L31
.LVL148:
.L110:
	movsd	%xmm3, 32(%rsp)
	movsd	%xmm4, 24(%rsp)
	movsd	%xmm2, 16(%rsp)
	movsd	%xmm1, 8(%rsp)
	movsd	%xmm5, (%rsp)
.LBE179:
.LBE226:
.LBB227:
.LBB197:
	call	sqrt@PLT
.LVL149:
	movsd	32(%rsp), %xmm3
	movsd	24(%rsp), %xmm4
	movsd	16(%rsp), %xmm2
	movsd	8(%rsp), %xmm1
	movsd	(%rsp), %xmm5
	jmp	.L42
.LVL150:
.L105:
.LBE197:
.LBE227:
.LBB228:
.LBB185:
	movapd	%xmm1, %xmm0
	movsd	%xmm3, 24(%rsp)
	movsd	%xmm2, 16(%rsp)
	movsd	%xmm8, 8(%rsp)
	movsd	%xmm6, (%rsp)
	call	sqrt@PLT
.LVL151:
	movsd	24(%rsp), %xmm3
	movsd	16(%rsp), %xmm2
	movsd	8(%rsp), %xmm8
	movsd	(%rsp), %xmm6
	jmp	.L35
.LVL152:
.L119:
.LBE185:
.LBE228:
.LBB229:
.LBB221:
	movapd	%xmm7, %xmm0
	movsd	%xmm4, 56(%rsp)
	movsd	%xmm2, 48(%rsp)
	movsd	%xmm1, 40(%rsp)
	movsd	%xmm9, 32(%rsp)
	movsd	%xmm10, 24(%rsp)
	movsd	%xmm8, 16(%rsp)
	movsd	%xmm6, 8(%rsp)
	movsd	%xmm5, (%rsp)
	call	sqrt@PLT
.LVL153:
	movsd	56(%rsp), %xmm4
	movsd	48(%rsp), %xmm2
	movsd	40(%rsp), %xmm1
	movsd	32(%rsp), %xmm9
	movsd	24(%rsp), %xmm10
	movsd	16(%rsp), %xmm8
	movsd	8(%rsp), %xmm6
	movsd	(%rsp), %xmm5
	jmp	.L54
.LVL154:
.L106:
	movsd	%xmm3, 32(%rsp)
	movsd	%xmm2, 24(%rsp)
	movsd	%xmm5, 16(%rsp)
	movsd	%xmm8, 8(%rsp)
	movsd	%xmm6, (%rsp)
.LBE221:
.LBE229:
.LBB230:
.LBB188:
	call	sqrt@PLT
.LVL155:
	movsd	8(%rbx), %xmm1
	movsd	16(%rbx), %xmm4
	movsd	32(%rsp), %xmm3
	movsd	24(%rsp), %xmm2
	movsd	16(%rsp), %xmm5
	movsd	8(%rsp), %xmm8
	movsd	(%rsp), %xmm6
	jmp	.L36
.LVL156:
.L107:
	movsd	%xmm3, 40(%rsp)
	movsd	%xmm2, 32(%rsp)
	movsd	%xmm7, 24(%rsp)
	movsd	%xmm5, 16(%rsp)
	movsd	%xmm8, 8(%rsp)
	movsd	%xmm6, (%rsp)
.LBE188:
.LBE230:
.LBB231:
.LBB191:
	call	sqrt@PLT
.LVL157:
	movsd	8(%rbx), %xmm1
	movsd	16(%rbx), %xmm4
	movsd	40(%rsp), %xmm3
	movsd	32(%rsp), %xmm2
	movsd	24(%rsp), %xmm7
	movsd	16(%rsp), %xmm5
	movsd	8(%rsp), %xmm8
	movsd	(%rsp), %xmm6
	jmp	.L37
.LVL158:
.L116:
	movsd	%xmm3, 40(%rsp)
	movsd	%xmm4, 32(%rsp)
	movsd	%xmm2, 24(%rsp)
	movsd	%xmm8, 16(%rsp)
	movsd	%xmm6, 8(%rsp)
	movsd	%xmm5, (%rsp)
.LBE191:
.LBE231:
.LBB232:
.LBB212:
	call	sqrt@PLT
.LVL159:
	movsd	8(%r14), %xmm1
	movsd	16(%r14), %xmm7
	movsd	40(%rsp), %xmm3
	movsd	32(%rsp), %xmm4
	movsd	24(%rsp), %xmm2
	movsd	16(%rsp), %xmm8
	movsd	8(%rsp), %xmm6
	movsd	(%rsp), %xmm5
	jmp	.L51
.LVL160:
.L111:
	movsd	%xmm3, 32(%rsp)
	movsd	%xmm4, 24(%rsp)
	movsd	%xmm2, 16(%rsp)
	movsd	%xmm8, 8(%rsp)
	movsd	%xmm5, (%rsp)
.LBE212:
.LBE232:
.LBB233:
.LBB200:
	call	sqrt@PLT
.LVL161:
	movsd	8(%r12), %xmm1
	movsd	16(%r12), %xmm6
	movsd	32(%rsp), %xmm3
	movsd	24(%rsp), %xmm4
	movsd	16(%rsp), %xmm2
	movsd	8(%rsp), %xmm8
	movsd	(%rsp), %xmm5
	jmp	.L45
.LVL162:
.L112:
.LBE200:
.LBE233:
.LBB234:
.LBB203:
	movapd	%xmm1, %xmm0
	movsd	%xmm3, 40(%rsp)
	movsd	%xmm4, 32(%rsp)
	movsd	%xmm2, 24(%rsp)
	movsd	%xmm9, 16(%rsp)
	movsd	%xmm8, 8(%rsp)
	movsd	%xmm5, (%rsp)
	call	sqrt@PLT
.LVL163:
	movsd	40(%rsp), %xmm3
	movsd	32(%rsp), %xmm4
	movsd	24(%rsp), %xmm2
	movsd	16(%rsp), %xmm9
	movsd	8(%rsp), %xmm8
	movsd	(%rsp), %xmm5
	jmp	.L46
.LVL164:
.L109:
.LBE203:
.LBE234:
.LBB235:
.LBB194:
	movapd	%xmm1, %xmm0
	movsd	%xmm3, 24(%rsp)
	movsd	%xmm4, 16(%rsp)
	movsd	%xmm2, 8(%rsp)
	movsd	%xmm5, (%rsp)
	call	sqrt@PLT
.LVL165:
	movsd	24(%rsp), %xmm3
	movsd	16(%rsp), %xmm4
	movsd	8(%rsp), %xmm2
	movsd	(%rsp), %xmm5
	jmp	.L40
.LVL166:
.L104:
	movsd	%xmm3, 16(%rsp)
	movsd	%xmm2, 8(%rsp)
	movsd	%xmm6, (%rsp)
.LBE194:
.LBE235:
.LBB236:
.LBB182:
	call	sqrt@PLT
.LVL167:
	movsd	8(%r13), %xmm1
	movsd	16(%r13), %xmm4
	movsd	16(%rsp), %xmm3
	movsd	8(%rsp), %xmm2
	movsd	(%rsp), %xmm6
	jmp	.L34
.LVL168:
.L117:
.LBE182:
.LBE236:
.LBB237:
.LBB215:
	movapd	%xmm1, %xmm0
	movsd	%xmm3, 48(%rsp)
	movsd	%xmm4, 40(%rsp)
	movsd	%xmm2, 32(%rsp)
	movsd	%xmm10, 24(%rsp)
	movsd	%xmm8, 16(%rsp)
	movsd	%xmm6, 8(%rsp)
	movsd	%xmm5, (%rsp)
	call	sqrt@PLT
.LVL169:
	movsd	48(%rsp), %xmm3
	movsd	40(%rsp), %xmm4
	movsd	32(%rsp), %xmm2
	movsd	24(%rsp), %xmm10
	movsd	16(%rsp), %xmm8
	movsd	8(%rsp), %xmm6
	movsd	(%rsp), %xmm5
	jmp	.L52
.LVL170:
.L118:
	movsd	%xmm3, 56(%rsp)
	movsd	%xmm4, 48(%rsp)
	movsd	%xmm2, 40(%rsp)
	movsd	%xmm9, 32(%rsp)
	movsd	%xmm10, 24(%rsp)
	movsd	%xmm8, 16(%rsp)
	movsd	%xmm6, 8(%rsp)
	movsd	%xmm5, (%rsp)
.LBE215:
.LBE237:
.LBB238:
.LBB218:
	call	sqrt@PLT
.LVL171:
	movsd	8(%r13), %xmm1
	movsd	16(%r13), %xmm7
	movsd	56(%rsp), %xmm3
	movsd	48(%rsp), %xmm4
	movsd	40(%rsp), %xmm2
	movsd	32(%rsp), %xmm9
	movsd	24(%rsp), %xmm10
	movsd	16(%rsp), %xmm8
	movsd	8(%rsp), %xmm6
	movsd	(%rsp), %xmm5
	jmp	.L53
.LVL172:
.L113:
	movsd	%xmm3, 48(%rsp)
	movsd	%xmm4, 40(%rsp)
	movsd	%xmm2, 32(%rsp)
	movsd	%xmm6, 24(%rsp)
	movsd	%xmm9, 16(%rsp)
	movsd	%xmm8, 8(%rsp)
	movsd	%xmm5, (%rsp)
.LBE218:
.LBE238:
.LBB239:
.LBB206:
	call	sqrt@PLT
.LVL173:
	movsd	8(%rbx), %xmm1
	movsd	16(%rbx), %xmm7
	movsd	48(%rsp), %xmm3
	movsd	40(%rsp), %xmm4
	movsd	32(%rsp), %xmm2
	movsd	24(%rsp), %xmm6
	movsd	16(%rsp), %xmm9
	movsd	8(%rsp), %xmm8
	movsd	(%rsp), %xmm5
	jmp	.L47
.LVL174:
.L114:
.LBE206:
.LBE239:
.LBB240:
.LBB209:
	movapd	%xmm7, %xmm0
	movsd	%xmm3, 56(%rsp)
	movsd	%xmm4, 48(%rsp)
	movsd	%xmm2, 40(%rsp)
	movsd	%xmm1, 32(%rsp)
	movsd	%xmm6, 24(%rsp)
	movsd	%xmm9, 16(%rsp)
	movsd	%xmm8, 8(%rsp)
	movsd	%xmm5, (%rsp)
	call	sqrt@PLT
.LVL175:
	movsd	56(%rsp), %xmm3
	movsd	48(%rsp), %xmm4
	movsd	40(%rsp), %xmm2
	movsd	32(%rsp), %xmm1
	movsd	24(%rsp), %xmm6
	movsd	16(%rsp), %xmm9
	movsd	8(%rsp), %xmm8
	movsd	(%rsp), %xmm5
	jmp	.L48
.LVL176:
.L102:
	movsd	%xmm3, 8(%rsp)
	movsd	%xmm2, (%rsp)
.LBE209:
.LBE240:
.LBB241:
.LBB175:
	call	sqrt@PLT
.LVL177:
	movsd	8(%rsp), %xmm3
	movsd	(%rsp), %xmm2
	jmp	.L29
.LBE175:
.LBE241:
.LBE245:
.LBE251:
	.cfi_endproc
.LFE5:
	.size	tsp, .-tsp
.Letext0:
	.file 2 "../olden/tsp/src/tsp.h"
	.section	.note.GNU-stack,"",@progbits
