	.file	"hash.c"
	.text
.Ltext0:
	.section	.rodata.str1.1,"aMS",@progbits,1
.LC0:
	.string	"Error! malloc returns null"
	.text
	.p2align 4,,15
	.type	localmalloc, @function
localmalloc:
.LFB22:
	.file 1 "../olden/mst/src/hash.c"
	.loc 1 12 0
	.cfi_startproc
.LVL0:
	.loc 1 15 0
	movl	remaining(%rip), %edx
	.loc 1 12 0
	pushq	%rbx
	.cfi_def_cfa_offset 16
	.cfi_offset 3, -16
	.loc 1 12 0
	movl	%edi, %ebx
	.loc 1 15 0
	cmpl	%edi, %edx
	jl	.L2
	movq	temp(%rip), %rax
.LVL1:
.L3:
	.loc 1 22 0
	movslq	%ebx, %rcx
	.loc 1 23 0
	subl	%ebx, %edx
	.loc 1 22 0
	addq	%rax, %rcx
	.loc 1 23 0
	movl	%edx, remaining(%rip)
	.loc 1 22 0
	movq	%rcx, temp(%rip)
.LVL2:
	.loc 1 25 0
	popq	%rbx
	.cfi_remember_state
	.cfi_def_cfa_offset 8
.LVL3:
	ret
.LVL4:
	.p2align 4,,10
	.p2align 3
.L2:
	.cfi_restore_state
	.loc 1 17 0
	movl	$32768, %edi
	call	malloc@PLT
.LVL5:
	.loc 1 18 0
	testq	%rax, %rax
	.loc 1 17 0
	movq	%rax, temp(%rip)
	.loc 1 18 0
	je	.L7
.L4:
	.loc 1 12 0
	movl	$32768, %edx
	jmp	.L3
	.p2align 4,,10
	.p2align 3
.L7:
.LVL6:
.LBB16:
.LBB17:
	.file 2 "/usr/include/x86_64-linux-gnu/bits/stdio2.h"
	.loc 2 104 0
	leaq	.LC0(%rip), %rdi
	call	puts@PLT
.LVL7:
	movq	temp(%rip), %rax
	jmp	.L4
.LBE17:
.LBE16:
	.cfi_endproc
.LFE22:
	.size	localmalloc, .-localmalloc
	.p2align 4,,15
	.globl	MakeHash
	.type	MakeHash, @function
MakeHash:
.LFB23:
	.loc 1 30 0
	.cfi_startproc
.LVL8:
	pushq	%r12
	.cfi_def_cfa_offset 16
	.cfi_offset 12, -16
	pushq	%rbp
	.cfi_def_cfa_offset 24
	.cfi_offset 6, -24
	movl	%edi, %ebp
	pushq	%rbx
	.cfi_def_cfa_offset 32
	.cfi_offset 3, -32
	.loc 1 34 0
	movl	$24, %edi
.LVL9:
	.loc 1 30 0
	movq	%rsi, %r12
	.loc 1 34 0
	call	localmalloc
.LVL10:
	.loc 1 35 0
	leal	0(,%rbp,8), %edi
	.loc 1 34 0
	movq	%rax, %rbx
.LVL11:
	.loc 1 35 0
	call	localmalloc
.LVL12:
	.loc 1 36 0
	testl	%ebp, %ebp
	.loc 1 35 0
	movq	%rax, (%rbx)
.LVL13:
	.loc 1 36 0
	jle	.L9
	leal	-1(%rbp), %edx
	leaq	8(%rax,%rdx,8), %rdx
.LVL14:
	.p2align 4,,10
	.p2align 3
.L10:
	.loc 1 37 0 discriminator 3
	movq	$0, (%rax)
	addq	$8, %rax
	.loc 1 36 0 discriminator 3
	cmpq	%rdx, %rax
	jne	.L10
.L9:
	.loc 1 38 0
	movq	%r12, 8(%rbx)
	.loc 1 39 0
	movl	%ebp, 16(%rbx)
	.loc 1 41 0
	movq	%rbx, %rax
	popq	%rbx
	.cfi_def_cfa_offset 24
.LVL15:
	popq	%rbp
	.cfi_def_cfa_offset 16
.LVL16:
	popq	%r12
	.cfi_def_cfa_offset 8
.LVL17:
	ret
	.cfi_endproc
.LFE23:
	.size	MakeHash, .-MakeHash
	.section	.rodata.str1.1
.LC1:
	.string	"Assertion failure:%d in hash\n"
	.text
	.p2align 4,,15
	.globl	HashLookup
	.type	HashLookup, @function
HashLookup:
.LFB24:
	.loc 1 44 0
	.cfi_startproc
.LVL18:
	pushq	%rbp
	.cfi_def_cfa_offset 16
	.cfi_offset 6, -16
	pushq	%rbx
	.cfi_def_cfa_offset 24
	.cfi_offset 3, -24
	movq	%rsi, %rbp
	movl	%edi, %ebx
	subq	$8, %rsp
	.cfi_def_cfa_offset 32
	.loc 1 48 0
	call	*8(%rsi)
.LVL19:
	.loc 1 49 0
	testl	%eax, %eax
	js	.L24
	.loc 1 50 0
	cmpl	%eax, 16(%rbp)
	jle	.L25
	.loc 1 51 0
	movq	0(%rbp), %rdx
	cltq
	movq	(%rdx,%rax,8), %rax
.LVL20:
	testq	%rax, %rax
	je	.L20
	.loc 1 52 0
	cmpl	(%rax), %ebx
	jne	.L18
	jmp	.L17
	.p2align 4,,10
	.p2align 3
.L26:
	cmpl	%ebx, (%rax)
	je	.L17
.L18:
	.loc 1 54 0
	movq	16(%rax), %rax
.LVL21:
	.loc 1 51 0
	testq	%rax, %rax
	jne	.L26
.L20:
	.loc 1 57 0
	addq	$8, %rsp
	.cfi_remember_state
	.cfi_def_cfa_offset 24
	.loc 1 56 0
	xorl	%eax, %eax
.LVL22:
	.loc 1 57 0
	popq	%rbx
	.cfi_def_cfa_offset 16
.LVL23:
	popq	%rbp
	.cfi_def_cfa_offset 8
.LVL24:
	ret
.LVL25:
	.p2align 4,,10
	.p2align 3
.L17:
	.cfi_restore_state
	.loc 1 55 0
	movq	8(%rax), %rax
.LVL26:
	.loc 1 57 0
	addq	$8, %rsp
	.cfi_remember_state
	.cfi_def_cfa_offset 24
	popq	%rbx
	.cfi_def_cfa_offset 16
.LVL27:
	popq	%rbp
	.cfi_def_cfa_offset 8
.LVL28:
	ret
.LVL29:
.L24:
	.cfi_restore_state
.LBB26:
.LBB27:
.LBB28:
.LBB29:
	.loc 2 104 0
	movl	$1, %edx
.LVL30:
.L23:
.LBE29:
.LBE28:
.LBE27:
.LBE26:
.LBB30:
.LBB31:
	leaq	.LC1(%rip), %rsi
	movl	$1, %edi
	xorl	%eax, %eax
.LVL31:
	call	__printf_chk@PLT
.LVL32:
.LBE31:
.LBE30:
	.loc 1 50 0
	movl	$-1, %edi
	call	exit@PLT
.LVL33:
.L25:
.LBB33:
.LBB32:
	.loc 2 104 0
	movl	$2, %edx
	jmp	.L23
.LBE32:
.LBE33:
	.cfi_endproc
.LFE24:
	.size	HashLookup, .-HashLookup
	.p2align 4,,15
	.globl	HashInsert
	.type	HashInsert, @function
HashInsert:
.LFB25:
	.loc 1 60 0
	.cfi_startproc
.LVL34:
	pushq	%r13
	.cfi_def_cfa_offset 16
	.cfi_offset 13, -16
	pushq	%r12
	.cfi_def_cfa_offset 24
	.cfi_offset 12, -24
	movq	%rdi, %r13
	pushq	%rbp
	.cfi_def_cfa_offset 32
	.cfi_offset 6, -32
	pushq	%rbx
	.cfi_def_cfa_offset 40
	.cfi_offset 3, -40
	movl	%esi, %ebx
	.loc 1 64 0
	movl	%ebx, %edi
.LVL35:
	movq	%rdx, %rsi
.LVL36:
	.loc 1 60 0
	movq	%rdx, %rbp
	subq	$8, %rsp
	.cfi_def_cfa_offset 48
	.loc 1 64 0
	call	HashLookup
.LVL37:
	testq	%rax, %rax
	jne	.L30
	.loc 1 66 0
	movl	%ebx, %edi
	call	*8(%rbp)
.LVL38:
	.loc 1 67 0
	movl	$24, %edi
	.loc 1 66 0
	movslq	%eax, %r12
.LVL39:
	.loc 1 67 0
	call	localmalloc
.LVL40:
	.loc 1 68 0
	movq	0(%rbp), %rdx
	leaq	(%rdx,%r12,8), %rdx
	movq	(%rdx), %rcx
	movq	%rcx, 16(%rax)
	.loc 1 69 0
	movq	%rax, (%rdx)
	.loc 1 70 0
	movl	%ebx, (%rax)
	.loc 1 71 0
	movq	%r13, 8(%rax)
	.loc 1 72 0
	addq	$8, %rsp
	.cfi_remember_state
	.cfi_def_cfa_offset 40
	popq	%rbx
	.cfi_def_cfa_offset 32
.LVL41:
	popq	%rbp
	.cfi_def_cfa_offset 24
.LVL42:
	popq	%r12
	.cfi_def_cfa_offset 16
.LVL43:
	popq	%r13
	.cfi_def_cfa_offset 8
.LVL44:
	ret
.LVL45:
.L30:
	.cfi_restore_state
.LBB34:
.LBB35:
	.loc 2 104 0
	leaq	.LC1(%rip), %rsi
	movl	$1, %edi
	movl	$3, %edx
	xorl	%eax, %eax
	call	__printf_chk@PLT
.LVL46:
.LBE35:
.LBE34:
	.loc 1 64 0
	orl	$-1, %edi
	call	exit@PLT
.LVL47:
	.cfi_endproc
.LFE25:
	.size	HashInsert, .-HashInsert
	.p2align 4,,15
	.globl	HashDelete
	.type	HashDelete, @function
HashDelete:
.LFB26:
	.loc 1 74 0
	.cfi_startproc
.LVL48:
	pushq	%rbp
	.cfi_def_cfa_offset 16
	.cfi_offset 6, -16
	pushq	%rbx
	.cfi_def_cfa_offset 24
	.cfi_offset 3, -24
	movq	%rsi, %rbp
	movl	%edi, %ebx
	subq	$8, %rsp
	.cfi_def_cfa_offset 32
	.loc 1 76 0
	call	*8(%rsi)
.LVL49:
	.loc 1 77 0
	movq	0(%rbp), %rdx
	cltq
	leaq	(%rdx,%rax,8), %rcx
.LVL50:
	.loc 1 79 0
	movq	(%rcx), %rdx
	testq	%rdx, %rdx
	je	.L32
	cmpl	(%rdx), %ebx
	jne	.L34
	jmp	.L44
.LVL51:
	.p2align 4,,10
	.p2align 3
.L46:
	.loc 1 79 0 is_stmt 0 discriminator 1
	cmpl	%ebx, (%rax)
	je	.L45
	movq	%rax, %rdx
.LVL52:
.L34:
	.loc 1 79 0
	movq	16(%rdx), %rax
	testq	%rax, %rax
	jne	.L46
.LVL53:
.L32:
.LBB36:
.LBB37:
	.loc 2 104 0 is_stmt 1
	leaq	.LC1(%rip), %rsi
	movl	$1, %edi
	movl	$4, %edx
	xorl	%eax, %eax
	call	__printf_chk@PLT
.LVL54:
.LBE37:
.LBE36:
	.loc 1 83 0
	movl	$-1, %edi
	call	exit@PLT
.LVL55:
	.p2align 4,,10
	.p2align 3
.L45:
	.loc 1 80 0
	leaq	16(%rdx), %rcx
.LVL56:
.L33:
	.loc 1 86 0
	movq	16(%rax), %rax
.LVL57:
	movq	%rax, (%rcx)
	.loc 1 88 0
	addq	$8, %rsp
	.cfi_remember_state
	.cfi_def_cfa_offset 24
	popq	%rbx
	.cfi_def_cfa_offset 16
.LVL58:
	popq	%rbp
	.cfi_def_cfa_offset 8
.LVL59:
	ret
.LVL60:
	.p2align 4,,10
	.p2align 3
.L44:
	.cfi_restore_state
	.loc 1 79 0
	movq	%rdx, %rax
.LVL61:
	jmp	.L33
	.cfi_endproc
.LFE26:
	.size	HashDelete, .-HashDelete
	.local	temp
	.comm	temp,8,8
	.local	remaining
	.comm	remaining,4,4
.Letext0:
	.file 3 "/usr/lib/gcc/x86_64-linux-gnu/7/include/stddef.h"
	.file 4 "/usr/include/x86_64-linux-gnu/bits/types.h"
	.file 5 "/usr/include/x86_64-linux-gnu/bits/libio.h"
	.file 6 "/usr/include/stdio.h"
	.file 7 "../olden/mst/src/hash.h"
	.file 8 "/usr/include/stdlib.h"
	.file 9 "<built-in>"
	.section	.note.GNU-stack,"",@progbits
