	.file	"makegraph.c"
	.text
.Ltext0:
	.p2align 4,,15
	.type	hashfunc, @function
hashfunc:
.LFB25:
	.file 1 "../olden/mst/src/makegraph.c"
	.loc 1 37 0
	.cfi_startproc
.LVL0:
	.loc 1 38 0
	movl	%edi, %eax
	xorl	%edx, %edx
	shrl	$3, %eax
	divl	HashRange(%rip)
	.loc 1 39 0
	movl	%edx, %eax
	ret
	.cfi_endproc
.LFE25:
	.size	hashfunc, .-hashfunc
	.section	.rodata.str1.1,"aMS",@progbits,1
.LC0:
	.string	"Make phase 2"
.LC1:
	.string	"Make phase 4"
.LC2:
	.string	"Make returning"
.LC3:
	.string	"Make phase 3"
	.text
	.p2align 4,,15
	.globl	MakeGraph
	.type	MakeGraph, @function
MakeGraph:
.LFB27:
	.loc 1 76 0
	.cfi_startproc
.LVL1:
	.loc 1 77 0
	movl	%edi, %eax
	.loc 1 76 0
	pushq	%r15
	.cfi_def_cfa_offset 16
	.cfi_offset 15, -16
	pushq	%r14
	.cfi_def_cfa_offset 24
	.cfi_offset 14, -24
	.loc 1 77 0
	cltd
	.loc 1 76 0
	pushq	%r13
	.cfi_def_cfa_offset 32
	.cfi_offset 13, -32
	pushq	%r12
	.cfi_def_cfa_offset 40
	.cfi_offset 12, -40
	.loc 1 77 0
	idivl	%esi
	.loc 1 76 0
	pushq	%rbp
	.cfi_def_cfa_offset 48
	.cfi_offset 6, -48
	pushq	%rbx
	.cfi_def_cfa_offset 56
	.cfi_offset 3, -56
	movl	%edi, %ebp
	movl	%esi, %r15d
	subq	$120, %rsp
	.cfi_def_cfa_offset 176
	.loc 1 77 0
	movl	%edi, 12(%rsp)
	.loc 1 83 0
	movl	$8, %edi
.LVL2:
	.loc 1 76 0
	movl	%esi, 72(%rsp)
	.loc 1 77 0
	movl	%eax, %ebx
.LVL3:
	.loc 1 83 0
	call	malloc@PLT
.LVL4:
.LBB40:
.LBB41:
	.file 2 "/usr/include/x86_64-linux-gnu/bits/stdio2.h"
	.loc 2 104 0
	leaq	.LC0(%rip), %rdi
.LBE41:
.LBE40:
	.loc 1 86 0
	movq	$0, (%rax)
	.loc 1 83 0
	movq	%rax, %r14
	movq	%rax, 32(%rsp)
.LVL5:
.LBB43:
.LBB42:
	.loc 2 104 0
	call	puts@PLT
.LVL6:
.LBE42:
.LBE43:
	.loc 1 89 0
	movl	%r15d, %esi
	subl	$1, %esi
.LVL7:
	movl	%esi, 76(%rsp)
	js	.L4
	.loc 1 91 0
	movslq	%ebx, %rax
	.loc 1 96 0
	leal	3(%rbp), %r12d
	testl	%ebp, %ebp
	.loc 1 91 0
	leaq	(%rax,%rax,2), %rax
	.loc 1 98 0
	movl	%ebx, 16(%rsp)
	.loc 1 96 0
	cmovns	%ebp, %r12d
	.loc 1 91 0
	leaq	0(,%rax,8), %rdi
	movslq	%esi, %rax
	.loc 1 96 0
	sarl	$2, %r12d
	salq	$3, %rax
	leaq	(%r14,%rax), %rdx
	subq	$8, %rax
	.loc 1 91 0
	movq	%rdi, 40(%rsp)
	movq	%rax, 88(%rsp)
	movq	%rdx, 96(%rsp)
	movq	%rdx, (%rsp)
	movl	%esi, %edx
	leaq	0(,%rdx,8), %rsi
.LVL8:
	subq	%rsi, %rax
	movq	%rsi, 80(%rsp)
	leaq	-24(%rdi), %rsi
	addq	%r14, %rax
	movq	%rax, 24(%rsp)
	leal	-1(%rbx), %eax
	movq	%rsi, 56(%rsp)
	leaq	0(,%rax,4), %rcx
	leaq	(%rax,%rax,2), %rdx
	subq	%rcx, %rax
	salq	$3, %rdx
	leaq	(%rsi,%rax,8), %rax
	movq	%rax, 48(%rsp)
	leaq	-48(%rdi), %rax
	subq	%rdx, %rax
	movq	%rax, 64(%rsp)
.LVL9:
	.p2align 4,,10
	.p2align 3
.L7:
	movq	40(%rsp), %rdi
	call	malloc@PLT
.LVL10:
	.loc 1 93 0
	movl	16(%rsp), %edx
	.loc 1 91 0
	movq	%rax, %r14
.LVL11:
	.loc 1 93 0
	testl	%edx, %edx
	jle	.L19
	movq	56(%rsp), %rax
.LVL12:
	.loc 1 92 0
	xorl	%ebx, %ebx
	leaq	(%r14,%rax), %r15
	movq	64(%rsp), %rax
	leaq	(%r14,%rax), %r13
.LVL13:
	.p2align 4,,10
	.p2align 3
.L6:
	.loc 1 98 0 discriminator 3
	leaq	hashfunc(%rip), %rsi
	.loc 1 97 0 discriminator 3
	movl	$9999999, (%r15)
	.loc 1 98 0 discriminator 3
	movl	%r12d, %edi
	.loc 1 95 0 discriminator 3
	movq	%r15, %rbp
.LVL14:
	.loc 1 96 0 discriminator 3
	movl	%r12d, HashRange(%rip)
	subq	$24, %r15
	.loc 1 98 0 discriminator 3
	call	MakeHash@PLT
.LVL15:
	.loc 1 99 0 discriminator 3
	movq	%rbx, 32(%r15)
.LVL16:
	.loc 1 98 0 discriminator 3
	movq	%rax, 40(%r15)
	.loc 1 93 0 discriminator 3
	cmpq	%r13, %r15
	movq	%rbp, %rbx
	jne	.L6
	addq	48(%rsp), %r14
.LVL17:
.L5:
	.loc 1 102 0 discriminator 2
	movq	(%rsp), %rax
	movq	%r14, (%rax)
	subq	$8, %rax
	.loc 1 89 0 discriminator 2
	cmpq	24(%rsp), %rax
	movq	%rax, (%rsp)
	jne	.L7
.LBB44:
.LBB45:
	.loc 2 104 0
	leaq	.LC3(%rip), %rdi
	movl	16(%rsp), %ebx
.LVL18:
.LBE45:
.LBE44:
.LBB48:
.LBB49:
.LBB50:
.LBB51:
.LBB52:
.LBB53:
.LBB54:
.LBB55:
.LBB56:
	.loc 1 17 0
	movl	$1759218605, %r12d
.LBE56:
.LBE55:
.LBE54:
.LBE53:
.LBE52:
.LBE51:
.LBE50:
.LBE49:
.LBE48:
.LBB95:
.LBB46:
	.loc 2 104 0
	call	puts@PLT
.LVL19:
	movq	96(%rsp), %rax
	movq	80(%rsp), %rsi
	movq	32(%rsp), %rcx
.LBE46:
.LBE95:
.LBB96:
.LBB93:
	.loc 1 54 0
	movl	72(%rsp), %r13d
	movq	104(%rsp), %rbp
	movl	%ebx, (%rsp)
	movq	%rax, 16(%rsp)
.LVL20:
	movl	76(%rsp), %eax
	imull	%ebx, %r13d
	imull	%ebx, %eax
	movl	%eax, 24(%rsp)
	movq	88(%rsp), %rax
	subq	%rsi, %rax
	addq	%rcx, %rax
	movq	%rax, 40(%rsp)
	leaq	8(%rcx,%rsi), %rax
	movq	%rax, 48(%rsp)
.LVL21:
	.p2align 4,,10
	.p2align 3
.L17:
	.loc 1 48 0 discriminator 3
	movl	72(%rsp), %eax
.LBE93:
.LBE96:
	.loc 1 108 0 discriminator 3
	movl	24(%rsp), %r14d
.LVL22:
.LBB97:
.LBB94:
	.loc 1 48 0 discriminator 3
	testl	%eax, %eax
	jle	.L9
	.loc 1 48 0 is_stmt 0
	movq	32(%rsp), %rax
.LVL23:
	movq	48(%rsp), %rdx
.LVL24:
	.p2align 4,,10
	.p2align 3
.L10:
	.loc 1 49 0 is_stmt 1
	movq	(%rax), %rbp
	addq	$8, %rax
.LVL25:
	.loc 1 48 0
	cmpq	%rax, %rdx
	jne	.L10
.LVL26:
.L9:
	.loc 1 52 0
	movq	16(%rsp), %rax
	movl	%r14d, %ebx
	movq	(%rax), %r15
.LVL27:
	testq	%r15, %r15
	movq	%r15, %r14
.LVL28:
	je	.L12
.LVL29:
	.p2align 4,,10
	.p2align 3
.L11:
	.loc 1 54 0
	xorl	%r15d, %r15d
	testl	%r13d, %r13d
	jle	.L16
	movq	%r14, %rax
	movl	%r15d, %r14d
.LVL30:
	movq	%rax, %r15
	jmp	.L15
.LVL31:
	.p2align 4,,10
	.p2align 3
.L39:
.LBB91:
.LBB84:
.LBB77:
	.loc 1 32 0
	movl	%r14d, %eax
	movl	%ebx, %esi
.L14:
.LVL32:
	.loc 1 33 0
	imull	12(%rsp), %esi
.LVL33:
	addl	%eax, %esi
.LVL34:
.LBB72:
.LBB67:
.LBB62:
.LBB57:
	.loc 1 17 0
	movl	%esi, %eax
.LVL35:
	movl	%esi, %r10d
	imull	%r12d
.LBE57:
.LBE62:
.LBE67:
.LBE72:
.LBE77:
.LBE84:
	.loc 1 64 0
	movl	%r14d, %eax
.LBB85:
.LBB78:
.LBB73:
.LBB68:
.LBB63:
.LBB58:
	.loc 1 17 0
	sarl	$31, %r10d
	movl	%edx, %ecx
.LBE58:
.LBE63:
.LBE68:
.LBE73:
.LBE78:
.LBE85:
	.loc 1 64 0
	cltd
	idivl	(%rsp)
.LBB86:
.LBB79:
.LBB74:
.LBB69:
.LBB64:
.LBB59:
	.loc 1 17 0
	sarl	$12, %ecx
	movl	%ecx, %edi
	subl	%r10d, %ecx
	subl	%r10d, %edi
	imull	$10000, %edi, %edi
.LBE59:
.LBE64:
.LBE69:
.LBE74:
.LBE79:
.LBE86:
	.loc 1 65 0
	movslq	%edx, %rdx
	leaq	(%rdx,%rdx,2), %rax
.LBB87:
.LBB80:
.LBB75:
.LBB70:
.LBB65:
.LBB60:
	.loc 1 17 0
	subl	%edi, %esi
.LVL36:
	movl	%esi, %edi
.LVL37:
.LBE60:
.LBE65:
.LBE70:
.LBE75:
.LBE80:
.LBE87:
	.loc 1 65 0
	leaq	0(%rbp,%rax,8), %rsi
.LBB88:
.LBB81:
.LBB76:
.LBB71:
.LBB66:
.LBB61:
	.loc 1 19 0
	imull	$5821, %ecx, %ecx
	imull	$3141, %edi, %eax
	addl	%eax, %ecx
	movl	%ecx, %eax
	imull	%r12d
.LVL38:
	movl	%ecx, %eax
	sarl	$31, %eax
	sarl	$12, %edx
	subl	%eax, %edx
	imull	$10000, %edx, %edx
	imull	$5821, %edi, %edi
	subl	%edx, %ecx
	imull	$10000, %ecx, %ecx
.LBE61:
.LBE66:
	.loc 1 25 0
	leal	1(%rcx,%rdi), %eax
.LBE71:
.LBE76:
	.loc 1 33 0
	cltd
	shrl	$21, %edx
	leal	(%rax,%rdx), %edi
	andl	$2047, %edi
	subl	%edx, %edi
.LBE81:
.LBE88:
	.loc 1 67 0
	movq	16(%r15), %rdx
.LBB89:
.LBB82:
	.loc 1 33 0
	addl	$1, %edi
.LBE82:
.LBE89:
	.loc 1 67 0
	movslq	%edi, %rdi
	call	HashInsert@PLT
.LVL39:
.L13:
.LBE91:
	.loc 1 54 0
	addl	$1, %r14d
.LVL40:
	cmpl	%r13d, %r14d
	je	.L38
.LVL41:
.L15:
.LBB92:
	.loc 1 60 0
	cmpl	%r14d, %ebx
	je	.L13
.LVL42:
.LBB90:
.LBB83:
	.loc 1 32 0
	jle	.L39
	movl	%ebx, %eax
	movl	%r14d, %esi
	jmp	.L14
.LVL43:
	.p2align 4,,10
	.p2align 3
.L38:
	movq	%r15, %r14
.LVL44:
.L16:
.LBE83:
.LBE90:
.LBE92:
	.loc 1 52 0
	movq	8(%r14), %r14
.LVL45:
	.loc 1 71 0
	addl	$1, %ebx
.LVL46:
	.loc 1 52 0
	testq	%r14, %r14
	jne	.L11
.LVL47:
.L12:
	subq	$8, 16(%rsp)
	movl	(%rsp), %esi
	movq	16(%rsp), %rax
	subl	%esi, 24(%rsp)
.LVL48:
.LBE94:
.LBE97:
	.loc 1 106 0
	cmpq	40(%rsp), %rax
	jne	.L17
.L18:
.LVL49:
.LBB98:
.LBB99:
	.loc 2 104 0
	leaq	.LC1(%rip), %rdi
	call	puts@PLT
.LVL50:
.LBE99:
.LBE98:
.LBB100:
.LBB101:
	leaq	.LC2(%rip), %rdi
	call	puts@PLT
.LVL51:
.LBE101:
.LBE100:
	.loc 1 115 0
	movq	32(%rsp), %rax
	addq	$120, %rsp
	.cfi_remember_state
	.cfi_def_cfa_offset 56
	popq	%rbx
	.cfi_def_cfa_offset 48
	popq	%rbp
	.cfi_def_cfa_offset 40
	popq	%r12
	.cfi_def_cfa_offset 32
	popq	%r13
	.cfi_def_cfa_offset 24
	popq	%r14
	.cfi_def_cfa_offset 16
	popq	%r15
	.cfi_def_cfa_offset 8
	ret
.LVL52:
.L19:
	.cfi_restore_state
	.loc 1 92 0
	xorl	%r14d, %r14d
	jmp	.L5
.LVL53:
.L4:
.LBB102:
.LBB47:
	.loc 2 104 0
	leaq	.LC3(%rip), %rdi
	call	puts@PLT
.LVL54:
	jmp	.L18
.LBE47:
.LBE102:
	.cfi_endproc
.LFE27:
	.size	MakeGraph, .-MakeGraph
	.local	HashRange
	.comm	HashRange,4,4
.Letext0:
	.file 3 "/usr/lib/gcc/x86_64-linux-gnu/7/include/stddef.h"
	.file 4 "/usr/include/x86_64-linux-gnu/bits/types.h"
	.file 5 "/usr/include/x86_64-linux-gnu/bits/libio.h"
	.file 6 "/usr/include/stdio.h"
	.file 7 "../olden/mst/src/hash.h"
	.file 8 "../olden/mst/src/mst.h"
	.file 9 "/usr/include/stdlib.h"
	.file 10 "<built-in>"
	.section	.note.GNU-stack,"",@progbits
