	.file	"newvor.c"
	.text
.Ltext0:
	.p2align 4,,15
	.globl	deleteedge
	.type	deleteedge, @function
deleteedge:
.LFB24:
	.file 1 "../olden/voronoi/src/newvor.c"
	.loc 1 60 0
	.cfi_startproc
.LVL0:
	.loc 1 63 0
	leaq	32(%rdi), %rax
	movq	%rdi, %rsi
	andq	$-128, %rsi
	andl	$127, %eax
	orq	%rsi, %rax
	movq	8(%rax), %rdx
	leaq	32(%rdx), %rax
	andq	$-128, %rdx
	andl	$127, %eax
	orq	%rdx, %rax
.LVL1:
.LBB131:
.LBB132:
	.loc 1 302 0
	movq	8(%rdi), %rdx
	.loc 1 303 0
	movq	8(%rax), %r8
	.loc 1 302 0
	leaq	32(%rdx), %rcx
	andq	$-128, %rdx
	andl	$127, %ecx
	orq	%rdx, %rcx
.LVL2:
	.loc 1 303 0
	leaq	32(%r8), %rdx
	andq	$-128, %r8
	andl	$127, %edx
	orq	%r8, %rdx
.LVL3:
	.loc 1 306 0
	movq	8(%rcx), %r8
	.loc 1 305 0
	movq	8(%rdx), %r9
.LVL4:
	.loc 1 307 0
	movq	%r9, 8(%rcx)
	.loc 1 310 0
	movq	%r8, 8(%rdx)
	.loc 1 312 0
	movq	8(%rdi), %rcx
.LVL5:
	.loc 1 313 0
	movq	8(%rax), %rdx
.LVL6:
	.loc 1 314 0
	movq	%rcx, 8(%rax)
	.loc 1 315 0
	movq	%rdx, 8(%rdi)
.LVL7:
.LBE132:
.LBE131:
	.loc 1 65 0
	xorq	$64, %rdi
.LVL8:
	leaq	32(%rdi), %rax
.LVL9:
	movq	%rdi, %rdx
	andq	$-128, %rdx
	andl	$127, %eax
	orq	%rdx, %rax
	movq	8(%rax), %rdx
	leaq	32(%rdx), %rax
	andq	$-128, %rdx
	andl	$127, %eax
	orq	%rdx, %rax
.LVL10:
.LBB133:
.LBB134:
	.loc 1 302 0
	movq	8(%rdi), %rdx
	.loc 1 303 0
	movq	8(%rax), %r8
	.loc 1 302 0
	leaq	32(%rdx), %rcx
	andq	$-128, %rdx
	andl	$127, %ecx
	orq	%rdx, %rcx
.LVL11:
	.loc 1 303 0
	leaq	32(%r8), %rdx
	andq	$-128, %r8
	andl	$127, %edx
	orq	%r8, %rdx
.LVL12:
	.loc 1 306 0
	movq	8(%rcx), %r8
	.loc 1 305 0
	movq	8(%rdx), %r9
.LVL13:
	.loc 1 307 0
	movq	%r9, 8(%rcx)
	.loc 1 310 0
	movq	%r8, 8(%rdx)
	.loc 1 312 0
	movq	8(%rdi), %rcx
.LVL14:
	.loc 1 313 0
	movq	8(%rax), %rdx
.LVL15:
	.loc 1 314 0
	movq	%rcx, 8(%rax)
.LBE134:
.LBE133:
.LBB136:
.LBB137:
	.loc 1 216 0
	movq	avail_edge(%rip), %rax
.LVL16:
.LBE137:
.LBE136:
.LBB139:
.LBB135:
	.loc 1 315 0
	movq	%rdx, 8(%rdi)
.LVL17:
.LBE135:
.LBE139:
.LBB140:
.LBB138:
	.loc 1 217 0
	movq	%rsi, avail_edge(%rip)
.LVL18:
	.loc 1 216 0
	movq	%rax, 8(%rsi)
.LBE138:
.LBE140:
	.loc 1 69 0
	ret
	.cfi_endproc
.LFE24:
	.size	deleteedge, .-deleteedge
	.p2align 4,,15
	.globl	get_low
	.type	get_low, @function
get_low:
.LFB26:
	.loc 1 91 0
	.cfi_startproc
.LVL19:
	.loc 1 91 0
	movq	%rdi, %rax
	.loc 1 93 0
	jmp	.L4
.LVL20:
	.p2align 4,,10
	.p2align 3
.L5:
	movq	%rdx, %rax
.LVL21:
.L4:
	.loc 1 93 0 is_stmt 0 discriminator 1
	movq	24(%rax), %rdx
.LVL22:
	testq	%rdx, %rdx
	jne	.L5
	.loc 1 95 0 is_stmt 1
	rep ret
	.cfi_endproc
.LFE26:
	.size	get_low, .-get_low
	.p2align 4,,15
	.globl	delete_all_edges
	.type	delete_all_edges, @function
delete_all_edges:
.LFB28:
	.loc 1 166 0
	.cfi_startproc
	.loc 1 166 0
	movq	$0, next_edge(%rip)
	movq	$0, avail_edge(%rip)
	.loc 1 166 0
	ret
	.cfi_endproc
.LFE28:
	.size	delete_all_edges, .-delete_all_edges
	.section	.rodata.str1.1,"aMS",@progbits,1
.LC0:
	.string	"myalign() failed"
	.text
	.p2align 4,,15
	.globl	myalign
	.type	myalign, @function
myalign:
.LFB29:
	.loc 1 174 0
	.cfi_startproc
.LVL23:
	subq	$8, %rsp
	.cfi_def_cfa_offset 16
	.loc 1 178 0
	movslq	%esi, %rsi
	movslq	%edi, %rdi
	call	memalign@PLT
.LVL24:
	.loc 1 181 0
	testq	%rax, %rax
	je	.L10
	.loc 1 190 0
	addq	$8, %rsp
	.cfi_remember_state
	.cfi_def_cfa_offset 8
	ret
.L10:
	.cfi_restore_state
.LVL25:
.LBB145:
.LBB146:
.LBB147:
.LBB148:
	.file 2 "/usr/include/x86_64-linux-gnu/bits/stdio2.h"
	.loc 2 104 0
	leaq	.LC0(%rip), %rdi
	call	puts@PLT
.LVL26:
.LBE148:
.LBE147:
	.loc 1 183 0
	orl	$-1, %edi
	call	exit@PLT
.LVL27:
.LBE146:
.LBE145:
	.cfi_endproc
.LFE29:
	.size	myalign, .-myalign
	.section	.rodata.str1.8,"aMS",@progbits,1
	.align 8
.LC1:
	.string	"Aborting in alloc_edge, ans = 0x%p\n"
	.text
	.p2align 4,,15
	.globl	alloc_edge
	.type	alloc_edge, @function
alloc_edge:
.LFB30:
	.loc 1 194 0
	.cfi_startproc
	subq	$8, %rsp
	.cfi_def_cfa_offset 16
	.loc 1 197 0
	movq	avail_edge(%rip), %rax
	testq	%rax, %rax
	je	.L19
.LVL28:
	.loc 1 205 0
	movq	8(%rax), %rdx
	movq	%rdx, avail_edge(%rip)
.LVL29:
.L14:
	.loc 1 207 0
	movq	$0, 16(%rax)
	.loc 1 208 0
	movq	$0, 48(%rax)
	.loc 1 209 0
	movq	$0, 80(%rax)
	.loc 1 210 0
	movq	$0, 112(%rax)
	.loc 1 212 0
	addq	$8, %rsp
	.cfi_remember_state
	.cfi_def_cfa_offset 8
	ret
.LVL30:
	.p2align 4,,10
	.p2align 3
.L19:
	.cfi_restore_state
.LBB157:
.LBB158:
	.loc 1 178 0
	movl	$128, %esi
	movl	$128, %edi
	call	memalign@PLT
.LVL31:
	.loc 1 181 0
	testq	%rax, %rax
	.loc 1 178 0
	movq	%rax, %rdx
.LVL32:
	.loc 1 181 0
	je	.L20
.LVL33:
.LBE158:
.LBE157:
	.loc 1 200 0
	testb	$127, %al
	je	.L14
.LVL34:
.LBB164:
.LBB165:
	.loc 2 104 0
	leaq	.LC1(%rip), %rsi
	movl	$1, %edi
	xorl	%eax, %eax
	call	__printf_chk@PLT
.LVL35:
.LBE165:
.LBE164:
	.loc 1 202 0
	orl	$-1, %edi
	call	exit@PLT
.LVL36:
.L20:
.LBB166:
.LBB163:
.LBB159:
.LBB160:
.LBB161:
.LBB162:
	.loc 2 104 0
	leaq	.LC0(%rip), %rdi
	call	puts@PLT
.LVL37:
.LBE162:
.LBE161:
	.loc 1 183 0
	orl	$-1, %edi
	call	exit@PLT
.LVL38:
.LBE160:
.LBE159:
.LBE163:
.LBE166:
	.cfi_endproc
.LFE30:
	.size	alloc_edge, .-alloc_edge
	.p2align 4,,15
	.globl	connect_left
	.type	connect_left, @function
connect_left:
.LFB22:
	.loc 1 25 0
	.cfi_startproc
.LVL39:
	pushq	%r13
	.cfi_def_cfa_offset 16
	.cfi_offset 13, -16
	.loc 1 30 0
	movq	%rdi, %rax
	.loc 1 25 0
	pushq	%r12
	.cfi_def_cfa_offset 24
	.cfi_offset 12, -24
	pushq	%rbp
	.cfi_def_cfa_offset 32
	.cfi_offset 6, -32
	pushq	%rbx
	.cfi_def_cfa_offset 40
	.cfi_offset 3, -40
	.loc 1 30 0
	xorq	$64, %rax
	.loc 1 25 0
	movq	%rsi, %rbp
	subq	$8, %rsp
	.cfi_def_cfa_offset 48
	.loc 1 30 0
	movq	(%rax), %r13
.LVL40:
	.loc 1 31 0
	leaq	96(%rdi), %rax
	andq	$-128, %rdi
.LVL41:
	.loc 1 32 0
	movq	(%rsi), %r12
	.loc 1 31 0
	andl	$127, %eax
.LVL42:
	orq	%rax, %rdi
	movq	8(%rdi), %rax
	leaq	32(%rax), %rbx
	andq	$-128, %rax
	andl	$127, %ebx
	orq	%rax, %rbx
.LVL43:
.LBB167:
.LBB168:
	.loc 1 276 0
	xorl	%eax, %eax
	call	alloc_edge
.LVL44:
	.loc 1 281 0
	leaq	32(%rax), %rcx
.LVL45:
	.loc 1 282 0
	leaq	96(%rax), %rdx
	.loc 1 283 0
	leaq	64(%rax), %rsi
.LVL46:
	.loc 1 279 0
	movq	%rax, 8(%rax)
	.loc 1 280 0
	movq	%r13, (%rax)
	.loc 1 282 0
	movq	%rdx, 40(%rax)
	.loc 1 284 0
	movq	%rsi, 8(%rsi)
.LBE168:
.LBE167:
.LBB171:
.LBB172:
	.loc 1 302 0
	movq	%rax, %rdx
.LBE172:
.LBE171:
.LBB177:
.LBB169:
	.loc 1 287 0
	movq	%rcx, 104(%rax)
.LBE169:
.LBE177:
.LBB178:
.LBB173:
	.loc 1 303 0
	movq	8(%rbx), %rsi
.LVL47:
	.loc 1 302 0
	andq	$-128, %rdx
	andl	$127, %ecx
.LBE173:
.LBE178:
.LBB179:
.LBB170:
	.loc 1 285 0
	movq	%r12, 64(%rax)
.LVL48:
.LBE170:
.LBE179:
.LBB180:
.LBB174:
	.loc 1 302 0
	orq	%rdx, %rcx
.LVL49:
	.loc 1 303 0
	leaq	32(%rsi), %rdx
	andq	$-128, %rsi
	andl	$127, %edx
	orq	%rsi, %rdx
.LVL50:
	.loc 1 306 0
	movq	8(%rcx), %rsi
	.loc 1 305 0
	movq	8(%rdx), %rdi
.LVL51:
	.loc 1 307 0
	movq	%rdi, 8(%rcx)
	.loc 1 310 0
	movq	%rsi, 8(%rdx)
.LBE174:
.LBE180:
	.loc 1 35 0
	movq	%rax, %rdi
.LVL52:
.LBB181:
.LBB175:
	.loc 1 313 0
	movq	8(%rbx), %rdx
.LVL53:
	.loc 1 312 0
	movq	8(%rax), %rcx
.LVL54:
.LBE175:
.LBE181:
	.loc 1 35 0
	xorq	$64, %rdi
.LBB182:
.LBB176:
	.loc 1 314 0
	movq	%rcx, 8(%rbx)
	.loc 1 315 0
	movq	%rdx, 8(%rax)
.LVL55:
.LBE176:
.LBE182:
.LBB183:
.LBB184:
	.loc 1 302 0
	movq	8(%rdi), %rdx
	.loc 1 303 0
	movq	8(%rbp), %rsi
	.loc 1 302 0
	leaq	32(%rdx), %rcx
	andq	$-128, %rdx
	andl	$127, %ecx
	orq	%rdx, %rcx
.LVL56:
	.loc 1 303 0
	leaq	32(%rsi), %rdx
	andq	$-128, %rsi
	andl	$127, %edx
	orq	%rsi, %rdx
.LVL57:
	.loc 1 306 0
	movq	8(%rcx), %rsi
	.loc 1 305 0
	movq	8(%rdx), %r8
.LVL58:
	.loc 1 307 0
	movq	%r8, 8(%rcx)
	.loc 1 310 0
	movq	%rsi, 8(%rdx)
	.loc 1 313 0
	movq	8(%rbp), %rdx
.LVL59:
	.loc 1 312 0
	movq	8(%rdi), %rcx
.LVL60:
	.loc 1 314 0
	movq	%rcx, 8(%rbp)
	.loc 1 315 0
	movq	%rdx, 8(%rdi)
.LVL61:
.LBE184:
.LBE183:
	.loc 1 38 0
	addq	$8, %rsp
	.cfi_def_cfa_offset 40
	popq	%rbx
	.cfi_def_cfa_offset 32
.LVL62:
	popq	%rbp
	.cfi_def_cfa_offset 24
.LVL63:
	popq	%r12
	.cfi_def_cfa_offset 16
.LVL64:
	popq	%r13
	.cfi_def_cfa_offset 8
.LVL65:
	ret
	.cfi_endproc
.LFE22:
	.size	connect_left, .-connect_left
	.p2align 4,,15
	.globl	connect_right
	.type	connect_right, @function
connect_right:
.LFB23:
	.loc 1 42 0
	.cfi_startproc
.LVL66:
	pushq	%r13
	.cfi_def_cfa_offset 16
	.cfi_offset 13, -16
	.loc 1 49 0
	leaq	32(%rsi), %rax
	.loc 1 42 0
	pushq	%r12
	.cfi_def_cfa_offset 24
	.cfi_offset 12, -24
	pushq	%rbp
	.cfi_def_cfa_offset 32
	.cfi_offset 6, -32
	pushq	%rbx
	.cfi_def_cfa_offset 40
	.cfi_offset 3, -40
	.loc 1 47 0
	xorq	$64, %rdi
.LVL67:
	.loc 1 49 0
	andl	$127, %eax
	.loc 1 47 0
	movq	%rdi, %rbp
	.loc 1 42 0
	subq	$8, %rsp
	.cfi_def_cfa_offset 48
	.loc 1 48 0
	movq	(%rsi), %r12
	.loc 1 49 0
	andq	$-128, %rsi
.LVL68:
	orq	%rax, %rsi
	.loc 1 47 0
	movq	(%rdi), %r13
.LVL69:
	.loc 1 49 0
	movq	8(%rsi), %rax
	leaq	32(%rax), %rbx
	andq	$-128, %rax
	andl	$127, %ebx
	orq	%rax, %rbx
.LVL70:
.LBB185:
.LBB186:
	.loc 1 276 0
	xorl	%eax, %eax
	call	alloc_edge
.LVL71:
	.loc 1 281 0
	leaq	32(%rax), %rcx
.LVL72:
	.loc 1 282 0
	leaq	96(%rax), %rdx
	.loc 1 283 0
	leaq	64(%rax), %rsi
.LVL73:
	.loc 1 279 0
	movq	%rax, 8(%rax)
	.loc 1 280 0
	movq	%r13, (%rax)
	.loc 1 282 0
	movq	%rdx, 40(%rax)
	.loc 1 284 0
	movq	%rsi, 8(%rsi)
.LBE186:
.LBE185:
.LBB189:
.LBB190:
	.loc 1 302 0
	movq	%rax, %rdx
.LBE190:
.LBE189:
.LBB195:
.LBB187:
	.loc 1 287 0
	movq	%rcx, 104(%rax)
.LBE187:
.LBE195:
.LBB196:
.LBB191:
	.loc 1 303 0
	movq	8(%rbp), %rsi
.LVL74:
	.loc 1 302 0
	andq	$-128, %rdx
	andl	$127, %ecx
.LBE191:
.LBE196:
.LBB197:
.LBB188:
	.loc 1 285 0
	movq	%r12, 64(%rax)
.LVL75:
.LBE188:
.LBE197:
.LBB198:
.LBB192:
	.loc 1 302 0
	orq	%rdx, %rcx
.LVL76:
	.loc 1 303 0
	leaq	32(%rsi), %rdx
	andq	$-128, %rsi
	andl	$127, %edx
	orq	%rsi, %rdx
.LVL77:
	.loc 1 306 0
	movq	8(%rcx), %rsi
	.loc 1 305 0
	movq	8(%rdx), %rdi
.LVL78:
	.loc 1 307 0
	movq	%rdi, 8(%rcx)
	.loc 1 310 0
	movq	%rsi, 8(%rdx)
.LBE192:
.LBE198:
	.loc 1 52 0
	movq	%rax, %rdi
.LVL79:
.LBB199:
.LBB193:
	.loc 1 313 0
	movq	8(%rbp), %rdx
.LVL80:
	.loc 1 312 0
	movq	8(%rax), %rcx
.LVL81:
.LBE193:
.LBE199:
	.loc 1 52 0
	xorq	$64, %rdi
.LBB200:
.LBB194:
	.loc 1 314 0
	movq	%rcx, 8(%rbp)
	.loc 1 315 0
	movq	%rdx, 8(%rax)
.LVL82:
.LBE194:
.LBE200:
.LBB201:
.LBB202:
	.loc 1 302 0
	movq	8(%rdi), %rdx
	.loc 1 303 0
	movq	8(%rbx), %rsi
	.loc 1 302 0
	leaq	32(%rdx), %rcx
	andq	$-128, %rdx
	andl	$127, %ecx
	orq	%rdx, %rcx
.LVL83:
	.loc 1 303 0
	leaq	32(%rsi), %rdx
	andq	$-128, %rsi
	andl	$127, %edx
	orq	%rsi, %rdx
.LVL84:
	.loc 1 306 0
	movq	8(%rcx), %rsi
	.loc 1 305 0
	movq	8(%rdx), %r8
.LVL85:
	.loc 1 307 0
	movq	%r8, 8(%rcx)
	.loc 1 310 0
	movq	%rsi, 8(%rdx)
	.loc 1 313 0
	movq	8(%rbx), %rdx
.LVL86:
	.loc 1 312 0
	movq	8(%rdi), %rcx
.LVL87:
	.loc 1 314 0
	movq	%rcx, 8(%rbx)
	.loc 1 315 0
	movq	%rdx, 8(%rdi)
.LVL88:
.LBE202:
.LBE201:
	.loc 1 55 0
	addq	$8, %rsp
	.cfi_def_cfa_offset 40
	popq	%rbx
	.cfi_def_cfa_offset 32
.LVL89:
	popq	%rbp
	.cfi_def_cfa_offset 24
.LVL90:
	popq	%r12
	.cfi_def_cfa_offset 16
.LVL91:
	popq	%r13
	.cfi_def_cfa_offset 8
.LVL92:
	ret
	.cfi_endproc
.LFE23:
	.size	connect_right, .-connect_right
	.p2align 4,,15
	.globl	free_edge
	.type	free_edge, @function
free_edge:
.LFB31:
	.loc 1 214 0
	.cfi_startproc
.LVL93:
	.loc 1 216 0
	movq	avail_edge(%rip), %rax
	.loc 1 215 0
	andq	$-128, %rdi
.LVL94:
	.loc 1 217 0
	movq	%rdi, avail_edge(%rip)
	.loc 1 216 0
	movq	%rax, 8(%rdi)
	.loc 1 218 0
	ret
	.cfi_endproc
.LFE31:
	.size	free_edge, .-free_edge
	.p2align 4,,15
	.globl	incircle
	.type	incircle, @function
incircle:
.LFB32:
	.loc 1 229 0
	.cfi_startproc
.LVL95:
	.loc 1 236 0
	movsd	(%rcx), %xmm3
.LVL96:
	.loc 1 248 0
	xorl	%eax, %eax
	.loc 1 236 0
	movsd	8(%rcx), %xmm4
.LVL97:
	.loc 1 238 0
	movsd	(%rdi), %xmm0
	.loc 1 240 0
	movsd	(%rsi), %xmm6
	movsd	8(%rsi), %xmm7
	.loc 1 238 0
	subsd	%xmm3, %xmm0
	.loc 1 242 0
	movsd	(%rdx), %xmm1
	.loc 1 240 0
	subsd	%xmm3, %xmm6
	subsd	%xmm4, %xmm7
	.loc 1 238 0
	movsd	8(%rdi), %xmm2
	.loc 1 242 0
	subsd	%xmm3, %xmm1
	movsd	8(%rdx), %xmm3
.LVL98:
	.loc 1 238 0
	subsd	%xmm4, %xmm2
	.loc 1 236 0
	movsd	16(%rcx), %xmm5
.LVL99:
	.loc 1 242 0
	subsd	%xmm4, %xmm3
.LVL100:
	.loc 1 244 0
	movapd	%xmm6, %xmm4
.LVL101:
	movapd	%xmm7, %xmm8
	mulsd	%xmm1, %xmm8
	mulsd	%xmm3, %xmm4
	.loc 1 245 0
	mulsd	%xmm2, %xmm1
.LVL102:
	mulsd	%xmm0, %xmm3
.LVL103:
	.loc 1 246 0
	mulsd	%xmm6, %xmm2
.LVL104:
	.loc 1 244 0
	subsd	%xmm8, %xmm4
	.loc 1 246 0
	mulsd	%xmm7, %xmm0
.LVL105:
	.loc 1 244 0
	movsd	16(%rdi), %xmm8
	.loc 1 245 0
	subsd	%xmm3, %xmm1
	movsd	16(%rsi), %xmm3
	.loc 1 244 0
	subsd	%xmm5, %xmm8
	.loc 1 245 0
	subsd	%xmm5, %xmm3
	.loc 1 246 0
	subsd	%xmm2, %xmm0
	movsd	16(%rdx), %xmm2
	.loc 1 244 0
	mulsd	%xmm8, %xmm4
.LVL106:
	.loc 1 246 0
	subsd	%xmm5, %xmm2
	.loc 1 245 0
	mulsd	%xmm3, %xmm1
	.loc 1 246 0
	mulsd	%xmm2, %xmm0
	.loc 1 245 0
	addsd	%xmm4, %xmm1
.LVL107:
	.loc 1 246 0
	addsd	%xmm0, %xmm1
	.loc 1 248 0
	ucomisd	.LC2(%rip), %xmm1
	seta	%al
	.loc 1 249 0
	ret
	.cfi_endproc
.LFE32:
	.size	incircle, .-incircle
	.p2align 4,,15
	.globl	ccw
	.type	ccw, @function
ccw:
.LFB33:
	.loc 1 252 0
	.cfi_startproc
.LVL108:
	.loc 1 261 0
	movsd	(%rdx), %xmm2
.LVL109:
	.loc 1 266 0
	xorl	%eax, %eax
	.loc 1 261 0
	movsd	8(%rdx), %xmm3
.LVL110:
	.loc 1 264 0
	movsd	(%rdi), %xmm0
	movsd	8(%rsi), %xmm1
	subsd	%xmm2, %xmm0
	subsd	%xmm3, %xmm1
	mulsd	%xmm1, %xmm0
	movsd	(%rsi), %xmm1
	subsd	%xmm2, %xmm1
	movsd	8(%rdi), %xmm2
.LVL111:
	subsd	%xmm3, %xmm2
	mulsd	%xmm2, %xmm1
	subsd	%xmm1, %xmm0
	.loc 1 266 0
	ucomisd	.LC2(%rip), %xmm0
	seta	%al
	.loc 1 267 0
	ret
	.cfi_endproc
.LFE33:
	.size	ccw, .-ccw
	.p2align 4,,15
	.globl	makeedge
	.type	makeedge, @function
makeedge:
.LFB34:
	.loc 1 274 0
	.cfi_startproc
.LVL112:
	pushq	%rbp
	.cfi_def_cfa_offset 16
	.cfi_offset 6, -16
	pushq	%rbx
	.cfi_def_cfa_offset 24
	.cfi_offset 3, -24
	.loc 1 276 0
	xorl	%eax, %eax
	.loc 1 274 0
	movq	%rdi, %rbp
	movq	%rsi, %rbx
	subq	$8, %rsp
	.cfi_def_cfa_offset 32
	.loc 1 276 0
	call	alloc_edge
.LVL113:
	.loc 1 281 0
	leaq	32(%rax), %rcx
.LVL114:
	.loc 1 282 0
	leaq	96(%rax), %rdx
	.loc 1 283 0
	leaq	64(%rax), %rdi
.LVL115:
	.loc 1 279 0
	movq	%rax, 8(%rax)
	.loc 1 280 0
	movq	%rbp, (%rax)
	.loc 1 282 0
	movq	%rdx, 40(%rax)
	.loc 1 284 0
	movq	%rdi, 8(%rdi)
	.loc 1 285 0
	movq	%rbx, 64(%rax)
.LVL116:
	.loc 1 287 0
	movq	%rcx, 104(%rax)
	.loc 1 292 0
	addq	$8, %rsp
	.cfi_def_cfa_offset 24
	popq	%rbx
	.cfi_def_cfa_offset 16
.LVL117:
	popq	%rbp
	.cfi_def_cfa_offset 8
.LVL118:
	ret
	.cfi_endproc
.LFE34:
	.size	makeedge, .-makeedge
	.p2align 4,,15
	.globl	splice
	.type	splice, @function
splice:
.LFB35:
	.loc 1 296 0
	.cfi_startproc
.LVL119:
	.loc 1 302 0
	movq	8(%rdi), %rax
	.loc 1 303 0
	movq	8(%rsi), %rcx
	.loc 1 302 0
	leaq	32(%rax), %rdx
	andq	$-128, %rax
	andl	$127, %edx
	orq	%rax, %rdx
.LVL120:
	.loc 1 303 0
	leaq	32(%rcx), %rax
	andq	$-128, %rcx
	andl	$127, %eax
	orq	%rcx, %rax
.LVL121:
	.loc 1 306 0
	movq	8(%rdx), %rcx
	.loc 1 305 0
	movq	8(%rax), %r8
.LVL122:
	.loc 1 307 0
	movq	%r8, 8(%rdx)
	.loc 1 310 0
	movq	%rcx, 8(%rax)
	.loc 1 312 0
	movq	8(%rdi), %rdx
.LVL123:
	.loc 1 313 0
	movq	8(%rsi), %rax
.LVL124:
	.loc 1 314 0
	movq	%rdx, 8(%rsi)
	.loc 1 315 0
	movq	%rax, 8(%rdi)
	.loc 1 319 0
	ret
	.cfi_endproc
.LFE35:
	.size	splice, .-splice
	.p2align 4,,15
	.globl	swapedge
	.type	swapedge, @function
swapedge:
.LFB36:
	.loc 1 323 0
	.cfi_startproc
.LVL125:
	.loc 1 328 0
	leaq	32(%rdi), %rax
	movq	%rdi, %rdx
	.loc 1 329 0
	movq	%rdi, %rcx
	.loc 1 328 0
	andq	$-128, %rdx
	.loc 1 329 0
	xorq	$64, %rcx
	.loc 1 328 0
	andl	$127, %eax
	.loc 1 330 0
	movq	%rcx, %rsi
	.loc 1 328 0
	orq	%rdx, %rax
	.loc 1 330 0
	andq	$-128, %rsi
	.loc 1 328 0
	movq	8(%rax), %rax
	leaq	32(%rax), %rdx
	andq	$-128, %rax
	andl	$127, %edx
	orq	%rax, %rdx
.LVL126:
	.loc 1 330 0
	leaq	32(%rcx), %rax
.LBB203:
.LBB204:
	.loc 1 303 0
	movq	8(%rdx), %r9
.LBE204:
.LBE203:
	.loc 1 330 0
	andl	$127, %eax
	orq	%rsi, %rax
	movq	8(%rax), %rsi
	leaq	32(%rsi), %rax
	andq	$-128, %rsi
	andl	$127, %eax
	orq	%rsi, %rax
.LVL127:
.LBB206:
.LBB205:
	.loc 1 302 0
	movq	8(%rdi), %rsi
	leaq	32(%rsi), %r8
	andq	$-128, %rsi
	andl	$127, %r8d
	orq	%rsi, %r8
.LVL128:
	.loc 1 303 0
	leaq	32(%r9), %rsi
	andq	$-128, %r9
	andl	$127, %esi
	orq	%r9, %rsi
.LVL129:
	.loc 1 306 0
	movq	8(%r8), %r9
	.loc 1 305 0
	movq	8(%rsi), %r10
.LVL130:
	.loc 1 307 0
	movq	%r10, 8(%r8)
	.loc 1 310 0
	movq	%r9, 8(%rsi)
	.loc 1 313 0
	movq	8(%rdx), %rsi
.LVL131:
	.loc 1 312 0
	movq	8(%rdi), %r8
.LVL132:
	.loc 1 314 0
	movq	%r8, 8(%rdx)
	.loc 1 315 0
	movq	%rsi, 8(%rdi)
.LVL133:
.LBE205:
.LBE206:
.LBB207:
.LBB208:
	.loc 1 302 0
	movq	8(%rcx), %rsi
	.loc 1 303 0
	movq	8(%rax), %r9
	.loc 1 302 0
	leaq	32(%rsi), %r8
	andq	$-128, %rsi
	andl	$127, %r8d
	orq	%rsi, %r8
.LVL134:
	.loc 1 303 0
	leaq	32(%r9), %rsi
	andq	$-128, %r9
	andl	$127, %esi
	orq	%r9, %rsi
.LVL135:
	.loc 1 306 0
	movq	8(%r8), %r9
	.loc 1 305 0
	movq	8(%rsi), %r10
.LVL136:
	.loc 1 307 0
	movq	%r10, 8(%r8)
	.loc 1 310 0
	movq	%r9, 8(%rsi)
	.loc 1 313 0
	movq	8(%rax), %rsi
.LVL137:
	.loc 1 312 0
	movq	8(%rcx), %r8
.LVL138:
	.loc 1 314 0
	movq	%r8, 8(%rax)
	.loc 1 315 0
	movq	%rsi, 8(%rcx)
.LVL139:
.LBE208:
.LBE207:
	.loc 1 333 0
	leaq	96(%rdx), %rsi
	movq	%rdx, %r8
	andq	$-128, %r8
	andl	$127, %esi
	orq	%r8, %rsi
	movq	8(%rsi), %r8
	leaq	32(%r8), %rsi
	andq	$-128, %r8
	andl	$127, %esi
	orq	%r8, %rsi
.LVL140:
.LBB209:
.LBB210:
	.loc 1 302 0
	movq	8(%rdi), %r8
	.loc 1 303 0
	movq	8(%rsi), %r10
	.loc 1 302 0
	leaq	32(%r8), %r9
	andl	$127, %r9d
	andq	$-128, %r8
.LBE210:
.LBE209:
	.loc 1 337 0
	xorq	$64, %rdx
.LVL141:
.LBB213:
.LBB211:
	.loc 1 302 0
	orq	%r8, %r9
.LVL142:
	.loc 1 303 0
	leaq	32(%r10), %r8
	andq	$-128, %r10
	andl	$127, %r8d
	orq	%r10, %r8
.LVL143:
	.loc 1 306 0
	movq	8(%r9), %r10
	.loc 1 305 0
	movq	8(%r8), %r11
.LVL144:
	.loc 1 307 0
	movq	%r11, 8(%r9)
	.loc 1 310 0
	movq	%r10, 8(%r8)
	.loc 1 312 0
	movq	8(%rdi), %r9
.LVL145:
	.loc 1 313 0
	movq	8(%rsi), %r8
.LVL146:
	.loc 1 314 0
	movq	%r9, 8(%rsi)
.LBE211:
.LBE213:
	.loc 1 335 0
	leaq	96(%rax), %rsi
.LVL147:
.LBB214:
.LBB212:
	.loc 1 315 0
	movq	%r8, 8(%rdi)
.LVL148:
.LBE212:
.LBE214:
	.loc 1 335 0
	movq	%rax, %r8
	.loc 1 338 0
	xorq	$64, %rax
.LVL149:
	.loc 1 337 0
	movq	(%rdx), %rdx
.LVL150:
	.loc 1 335 0
	andq	$-128, %r8
.LVL151:
	andl	$127, %esi
	.loc 1 338 0
	movq	(%rax), %rax
.LVL152:
	.loc 1 335 0
	orq	%r8, %rsi
	movq	8(%rsi), %r8
	leaq	32(%r8), %rsi
	andq	$-128, %r8
	andl	$127, %esi
	orq	%r8, %rsi
.LVL153:
.LBB215:
.LBB216:
	.loc 1 302 0
	movq	8(%rcx), %r8
	.loc 1 303 0
	movq	8(%rsi), %r10
	.loc 1 302 0
	leaq	32(%r8), %r9
	andq	$-128, %r8
	andl	$127, %r9d
	orq	%r8, %r9
.LVL154:
	.loc 1 303 0
	leaq	32(%r10), %r8
	andq	$-128, %r10
	andl	$127, %r8d
	orq	%r10, %r8
.LVL155:
	.loc 1 306 0
	movq	8(%r9), %r10
	.loc 1 305 0
	movq	8(%r8), %r11
.LVL156:
	.loc 1 307 0
	movq	%r11, 8(%r9)
	.loc 1 310 0
	movq	%r10, 8(%r8)
	.loc 1 313 0
	movq	8(%rsi), %r8
.LVL157:
	.loc 1 312 0
	movq	8(%rcx), %r9
.LVL158:
	.loc 1 314 0
	movq	%r9, 8(%rsi)
	.loc 1 315 0
	movq	%r8, 8(%rcx)
.LVL159:
.LBE216:
.LBE215:
	.loc 1 339 0
	movq	%rdx, (%rdi)
	.loc 1 340 0
	movq	%rax, (%rcx)
	.loc 1 342 0
	ret
	.cfi_endproc
.LFE36:
	.size	swapedge, .-swapedge
	.p2align 4,,15
	.globl	valid
	.type	valid, @function
valid:
.LFB37:
	.loc 1 351 0
	.cfi_startproc
.LVL160:
	.loc 1 356 0
	movq	(%rsi), %rax
.LVL161:
	.loc 1 359 0
	xorq	$64, %rdi
.LVL162:
	.loc 1 357 0
	xorq	$64, %rsi
.LVL163:
	movq	(%rsi), %rcx
.LVL164:
	.loc 1 359 0
	movq	(%rdi), %rdx
.LVL165:
.LBB217:
.LBB218:
	.loc 1 264 0
	movsd	(%rax), %xmm0
	.loc 1 261 0
	movsd	(%rcx), %xmm2
.LVL166:
	movsd	8(%rcx), %xmm3
.LVL167:
	.loc 1 264 0
	movsd	8(%rdx), %xmm1
	subsd	%xmm2, %xmm0
	subsd	%xmm3, %xmm1
	mulsd	%xmm1, %xmm0
	movsd	(%rdx), %xmm1
	subsd	%xmm2, %xmm1
	movsd	8(%rax), %xmm2
	.loc 1 266 0
	xorl	%eax, %eax
.LVL168:
	.loc 1 264 0
	subsd	%xmm3, %xmm2
	mulsd	%xmm2, %xmm1
	subsd	%xmm1, %xmm0
	.loc 1 266 0
	ucomisd	.LC2(%rip), %xmm0
	seta	%al
.LBE218:
.LBE217:
	.loc 1 361 0
	ret
	.cfi_endproc
.LFE37:
	.size	valid, .-valid
	.section	.rodata.str1.1
.LC3:
	.string	"Entered DUMP_QUAD: ptr=0x%p\n"
	.section	.rodata.str1.8
	.align 8
.LC4:
	.string	"DUMP_QUAD: ptr=0x%p onext=0x%p,v=0x%p\n"
	.text
	.p2align 4,,15
	.globl	dump_quad
	.type	dump_quad, @function
dump_quad:
.LFB38:
	.loc 1 365 0
	.cfi_startproc
.LVL169:
	.loc 1 370 0
	andq	$-128, %rdi
.LVL170:
	.loc 1 365 0
	pushq	%r12
	.cfi_def_cfa_offset 16
	.cfi_offset 12, -16
	pushq	%rbp
	.cfi_def_cfa_offset 24
	.cfi_offset 6, -24
	pushq	%rbx
	.cfi_def_cfa_offset 32
	.cfi_offset 3, -32
	.loc 1 370 0
	movq	%rdi, %rbx
.LVL171:
.LBB219:
.LBB220:
	.loc 2 104 0
	leaq	.LC3(%rip), %rsi
	leaq	128(%rbx), %r12
.LBE220:
.LBE219:
.LBB222:
.LBB223:
	leaq	.LC4(%rip), %rbp
.LBE223:
.LBE222:
.LBB225:
.LBB221:
	movq	%rdi, %rdx
	xorl	%eax, %eax
	movl	$1, %edi
	call	__printf_chk@PLT
.LVL172:
.L34:
.LBE221:
.LBE225:
	.loc 1 374 0 discriminator 3
	movq	8(%rbx), %rcx
.LVL173:
.LBB226:
.LBB224:
	.loc 2 104 0 discriminator 3
	movq	%rbx, %rdx
	xorl	%eax, %eax
	movq	%rbp, %rsi
	movl	$1, %edi
	addq	$32, %rbx
	movq	(%rcx), %r8
	call	__printf_chk@PLT
.LVL174:
.LBE224:
.LBE226:
	.loc 1 372 0 discriminator 3
	cmpq	%r12, %rbx
	jne	.L34
	.loc 1 378 0
	popq	%rbx
	.cfi_def_cfa_offset 24
	popq	%rbp
	.cfi_def_cfa_offset 16
	popq	%r12
	.cfi_def_cfa_offset 8
.LVL175:
	ret
	.cfi_endproc
.LFE38:
	.size	dump_quad, .-dump_quad
	.p2align 4,,15
	.globl	do_merge
	.type	do_merge, @function
do_merge:
.LFB39:
	.loc 1 386 0
	.cfi_startproc
.LVL176:
	pxor	%xmm7, %xmm7
	pushq	%r14
	.cfi_def_cfa_offset 16
	.cfi_offset 14, -16
	pushq	%r13
	.cfi_def_cfa_offset 24
	.cfi_offset 13, -24
	pushq	%r12
	.cfi_def_cfa_offset 32
	.cfi_offset 12, -32
	pushq	%rbp
	.cfi_def_cfa_offset 40
	.cfi_offset 6, -40
	movq	%rdi, %rbp
	pushq	%rbx
	.cfi_def_cfa_offset 48
	.cfi_offset 3, -48
	.loc 1 386 0
	movq	%rdx, %rdi
.LVL177:
	movq	%rcx, %rbx
.LVL178:
	.p2align 4,,10
	.p2align 3
.L43:
.LBB227:
	.loc 1 397 0
	movq	(%rsi), %rcx
	.loc 1 398 0
	movq	%rsi, %rax
	.loc 1 393 0
	movq	(%rdi), %rdx
.LVL179:
	.loc 1 398 0
	xorq	$64, %rax
	movq	(%rax), %rax
.LVL180:
.LBB228:
.LBB229:
	.loc 1 257 0
	movsd	(%rcx), %xmm5
.LVL181:
	.loc 1 261 0
	movsd	(%rdx), %xmm3
	movsd	8(%rdx), %xmm4
	.loc 1 264 0
	movapd	%xmm5, %xmm1
	movsd	8(%rax), %xmm0
	subsd	%xmm3, %xmm1
	.loc 1 257 0
	movsd	8(%rcx), %xmm6
.LVL182:
	.loc 1 264 0
	subsd	%xmm4, %xmm0
	mulsd	%xmm1, %xmm0
	jmp	.L78
.LVL183:
	.p2align 4,,10
	.p2align 3
.L79:
.LBE229:
.LBE228:
	.loc 1 405 0
	leaq	96(%rsi), %rax
	andq	$-128, %rsi
.LVL184:
	andl	$127, %eax
.LVL185:
	orq	%rax, %rsi
	movq	8(%rsi), %rax
	leaq	32(%rax), %rsi
	andq	$-128, %rax
	andl	$127, %esi
	orq	%rax, %rsi
.LVL186:
	.loc 1 409 0
	movq	(%rsi), %rcx
.LVL187:
	.loc 1 410 0
	movq	%rsi, %rax
	xorq	$64, %rax
	movq	(%rax), %rax
.LVL188:
.LBB231:
.LBB230:
	.loc 1 257 0
	movsd	(%rcx), %xmm5
.LVL189:
	movsd	8(%rcx), %xmm6
.LVL190:
	.loc 1 264 0
	movsd	8(%rax), %xmm0
	movapd	%xmm5, %xmm2
	subsd	%xmm4, %xmm0
	subsd	%xmm3, %xmm2
	mulsd	%xmm2, %xmm0
.LVL191:
.L78:
	movsd	(%rax), %xmm1
	movapd	%xmm6, %xmm2
	subsd	%xmm3, %xmm1
	subsd	%xmm4, %xmm2
	mulsd	%xmm2, %xmm1
	subsd	%xmm1, %xmm0
.LBE230:
.LBE231:
	.loc 1 403 0
	ucomisd	%xmm7, %xmm0
	ja	.L79
	.loc 1 416 0
	xorq	$64, %rdi
.LVL192:
.LBB232:
.LBB233:
	.loc 1 264 0
	subsd	%xmm6, %xmm4
.LBE233:
.LBE232:
	.loc 1 416 0
	movq	(%rdi), %rax
.LVL193:
.LBB235:
.LBB234:
	.loc 1 264 0
	subsd	%xmm5, %xmm3
	movsd	(%rax), %xmm1
	subsd	%xmm5, %xmm1
	movapd	%xmm1, %xmm0
	movapd	%xmm4, %xmm1
	mulsd	%xmm0, %xmm1
	movsd	8(%rax), %xmm0
	subsd	%xmm6, %xmm0
	movapd	%xmm0, %xmm2
	movapd	%xmm3, %xmm0
	mulsd	%xmm2, %xmm0
	subsd	%xmm0, %xmm1
.LBE234:
.LBE235:
	.loc 1 419 0
	ucomisd	%xmm7, %xmm1
	jbe	.L75
	.loc 1 420 0
	movq	8(%rdi), %rdi
.LVL194:
.LBE227:
	.loc 1 392 0
	jmp	.L43
.LVL195:
	.p2align 4,,10
	.p2align 3
.L75:
	.loc 1 425 0
	xorl	%eax, %eax
.LVL196:
	call	connect_left
.LVL197:
	movq	%rax, %r11
.LVL198:
	.loc 1 429 0
	movq	%rax, %rdx
	.loc 1 430 0
	leaq	32(%rax), %rax
.LVL199:
	movq	%r11, %rcx
	.loc 1 429 0
	xorq	$64, %rdx
.LVL200:
	.loc 1 430 0
	andl	$127, %eax
	andq	$-128, %rcx
.LVL201:
	.loc 1 429 0
	movq	8(%rdx), %r13
.LVL202:
	.loc 1 430 0
	orq	%rcx, %rax
	movq	8(%rax), %rax
	leaq	32(%rax), %r12
	andq	$-128, %rax
	andl	$127, %r12d
	orq	%rax, %r12
.LVL203:
	.loc 1 438 0
	movq	(%r11), %rax
	cmpq	%rax, (%rbx)
	.loc 1 439 0
	movq	(%rdx), %rax
	.loc 1 438 0
	cmove	%r11, %rbx
.LVL204:
	.loc 1 439 0
	cmpq	%rax, 0(%rbp)
	cmove	%rdx, %rbp
.LVL205:
	.p2align 4,,10
	.p2align 3
.L46:
.LBB236:
	.loc 1 446 0
	movq	8(%r13), %r10
.LVL206:
	.loc 1 447 0
	xorl	%eax, %eax
	movq	%r11, %rsi
	movq	%r10, %rdi
	call	valid
.LVL207:
	testl	%eax, %eax
	jne	.L80
.L47:
	.loc 1 476 0
	leaq	32(%r12), %rax
	movq	%r12, %rdx
	.loc 1 477 0
	movq	%r11, %rsi
	.loc 1 476 0
	andq	$-128, %rdx
	andl	$127, %eax
	orq	%rdx, %rax
	movq	8(%rax), %rax
	leaq	32(%rax), %r10
.LVL208:
	andq	$-128, %rax
	andl	$127, %r10d
	orq	%rax, %r10
.LVL209:
	.loc 1 477 0
	xorl	%eax, %eax
	movq	%r10, %rdi
	call	valid
.LVL210:
	testl	%eax, %eax
	jne	.L81
.L50:
	.loc 1 496 0
	movq	%r11, %rsi
	movq	%r13, %rdi
	xorl	%eax, %eax
	call	valid
.LVL211:
	.loc 1 498 0
	movq	%r12, %rdi
	.loc 1 496 0
	movl	%eax, %r8d
.LVL212:
	.loc 1 498 0
	movq	%r11, %rsi
	xorl	%eax, %eax
.LVL213:
	call	valid
.LVL214:
	.loc 1 500 0
	movl	%r8d, %edi
	orl	%eax, %edi
	je	.L76
.LVL215:
	.loc 1 511 0
	testl	%r8d, %r8d
	je	.L54
	.loc 1 511 0 is_stmt 0 discriminator 1
	testl	%eax, %eax
	je	.L55
	.loc 1 509 0 is_stmt 1
	movq	%r12, %rdx
	.loc 1 506 0
	movq	%r13, %rax
.LVL216:
	.loc 1 512 0
	movq	0(%r13), %rsi
	.loc 1 509 0
	xorq	$64, %rdx
	.loc 1 506 0
	xorq	$64, %rax
	.loc 1 512 0
	movq	(%rdx), %rcx
	movq	(%rax), %rdi
	xorl	%eax, %eax
	movq	(%r12), %rdx
	call	incircle
.LVL217:
	testl	%eax, %eax
	jne	.L54
.LVL218:
.L55:
	.loc 1 521 0
	movq	%r11, %rsi
	movq	%r13, %rdi
	xorl	%eax, %eax
	call	connect_right
.LVL219:
	movq	%rax, %r11
	.loc 1 522 0
	movq	8(%rax), %r13
.LVL220:
	.loc 1 521 0
	xorq	$64, %r11
.LVL221:
	jmp	.L46
.LVL222:
	.p2align 4,,10
	.p2align 3
.L54:
	.loc 1 516 0
	movq	%r11, %rsi
	movq	%r12, %rdi
	xorl	%eax, %eax
	xorq	$64, %rsi
	call	connect_left
.LVL223:
	.loc 1 517 0
	movq	%rax, %rdx
	.loc 1 516 0
	movq	%rax, %r11
.LVL224:
	.loc 1 517 0
	xorq	$64, %rdx
	leaq	96(%rdx), %rax
.LVL225:
	andq	$-128, %rdx
	andl	$127, %eax
	orq	%rdx, %rax
	movq	8(%rax), %rax
	leaq	32(%rax), %r12
.LVL226:
	andq	$-128, %rax
	andl	$127, %r12d
	orq	%rax, %r12
.LVL227:
	jmp	.L46
.LVL228:
	.p2align 4,,10
	.p2align 3
.L81:
	.loc 1 478 0
	movq	%r11, %rax
	.loc 1 481 0
	movq	(%r12), %rdx
	.loc 1 478 0
	xorq	$64, %rax
	movq	(%rax), %r14
.LVL229:
	.loc 1 479 0
	movq	%r10, %rax
	xorq	$64, %rax
	movq	(%rax), %rdi
.LVL230:
	.loc 1 480 0
	movq	%r12, %rax
	xorq	$64, %rax
	movq	(%rax), %rsi
.LVL231:
	.loc 1 482 0
	jmp	.L51
.LVL232:
	.p2align 4,,10
	.p2align 3
.L52:
	.loc 1 485 0
	movq	%r12, %rdi
.LVL233:
	xorl	%eax, %eax
	call	deleteedge
.LVL234:
	.loc 1 487 0
	leaq	32(%r10), %rax
	movq	%r10, %rdx
	.loc 1 490 0
	movq	%r10, %r12
	.loc 1 487 0
	andq	$-128, %rdx
	andl	$127, %eax
	orq	%rdx, %rax
	movq	8(%rax), %rdx
	leaq	32(%rdx), %rax
	andq	$-128, %rdx
	andl	$127, %eax
	orq	%rdx, %rax
.LVL235:
	.loc 1 488 0
	movq	%r10, %rdx
	.loc 1 490 0
	movq	%rax, %rcx
	.loc 1 488 0
	xorq	$64, %rdx
	.loc 1 490 0
	xorq	$64, %rcx
	.loc 1 488 0
	movq	(%rdx), %rsi
.LVL236:
	.loc 1 489 0
	movq	(%r10), %rdx
.LVL237:
	.loc 1 490 0
	movq	(%rcx), %rdi
.LVL238:
	.loc 1 487 0
	movq	%rax, %r10
.LVL239:
.L51:
	.loc 1 482 0
	xorl	%eax, %eax
	movq	%r14, %rcx
	call	incircle
.LVL240:
	testl	%eax, %eax
	jne	.L52
.LVL241:
	jmp	.L50
.LVL242:
	.p2align 4,,10
	.p2align 3
.L80:
	.loc 1 451 0
	movq	%r13, %rax
	.loc 1 448 0
	movq	(%r11), %r14
.LVL243:
	.loc 1 452 0
	movq	0(%r13), %rdx
	.loc 1 451 0
	xorq	$64, %rax
	movq	(%rax), %rdi
.LVL244:
	.loc 1 456 0
	movq	%r10, %rax
	xorq	$64, %rax
	movq	(%rax), %rsi
.LVL245:
	.loc 1 457 0
	jmp	.L48
.LVL246:
	.p2align 4,,10
	.p2align 3
.L49:
	.loc 1 460 0
	movq	%r13, %rdi
.LVL247:
	xorl	%eax, %eax
	call	deleteedge
.LVL248:
	.loc 1 464 0
	movq	8(%r10), %rax
.LVL249:
	.loc 1 465 0
	movq	%r10, %rdx
	.loc 1 471 0
	movq	%r10, %r13
	.loc 1 465 0
	xorq	$64, %rdx
	movq	(%rdx), %rdi
.LVL250:
	.loc 1 466 0
	movq	(%r10), %rdx
.LVL251:
	.loc 1 471 0
	movq	%rax, %rcx
	.loc 1 464 0
	movq	%rax, %r10
.LVL252:
	.loc 1 471 0
	xorq	$64, %rcx
	movq	(%rcx), %rsi
.LVL253:
.L48:
	.loc 1 457 0
	xorl	%eax, %eax
	movq	%r14, %rcx
	call	incircle
.LVL254:
	testl	%eax, %eax
	jne	.L49
.LVL255:
	jmp	.L47
.LVL256:
	.p2align 4,,10
	.p2align 3
.L76:
.LBE236:
	.loc 1 525 0
	movq	%rbp, %rax
.LVL257:
	movq	%rbx, %rdx
	popq	%rbx
	.cfi_def_cfa_offset 40
.LVL258:
	popq	%rbp
	.cfi_def_cfa_offset 32
.LVL259:
	popq	%r12
	.cfi_def_cfa_offset 24
.LVL260:
	popq	%r13
	.cfi_def_cfa_offset 16
.LVL261:
	popq	%r14
	.cfi_def_cfa_offset 8
	ret
	.cfi_endproc
.LFE39:
	.size	do_merge, .-do_merge
	.section	.rodata.str1.1
.LC5:
	.string	"ERROR: Only 1 point!"
	.text
	.p2align 4,,15
	.globl	build_delaunay
	.type	build_delaunay, @function
build_delaunay:
.LFB27:
	.loc 1 103 0
	.cfi_startproc
.LVL262:
	pushq	%r14
	.cfi_def_cfa_offset 16
	.cfi_offset 14, -16
	pushq	%r13
	.cfi_def_cfa_offset 24
	.cfi_offset 13, -24
	pushq	%r12
	.cfi_def_cfa_offset 32
	.cfi_offset 12, -32
	pushq	%rbp
	.cfi_def_cfa_offset 40
	.cfi_offset 6, -40
	pushq	%rbx
	.cfi_def_cfa_offset 48
	.cfi_offset 3, -48
	subq	$16, %rsp
	.cfi_def_cfa_offset 64
	.loc 1 111 0
	testq	%rdi, %rdi
	je	.L83
	movq	%rdi, %r13
	.loc 1 111 0 is_stmt 0 discriminator 1
	movq	32(%rdi), %rdi
.LVL263:
	movq	%rsi, %r14
	movq	24(%r13), %r12
	testq	%rdi, %rdi
	jne	.L99
.LBB237:
.LBB238:
	.loc 1 276 0 is_stmt 1
	xorl	%eax, %eax
.LBE238:
.LBE237:
	.loc 1 132 0
	testq	%r12, %r12
	je	.L100
.LVL264:
.LBB241:
.LBB242:
	.loc 1 276 0
	call	alloc_edge
.LVL265:
	movq	%rax, %rbp
.LVL266:
	.loc 1 281 0
	leaq	32(%rax), %rdx
.LVL267:
	.loc 1 279 0
	movq	%rax, 8(%rbp)
	.loc 1 283 0
	leaq	64(%rbp), %rcx
	.loc 1 280 0
	movq	%r12, (%rax)
	.loc 1 282 0
	leaq	96(%rax), %rax
.LVL268:
	movq	%rax, 40(%rbp)
	.loc 1 284 0
	movq	%rcx, 8(%rcx)
.LBE242:
.LBE241:
.LBB244:
.LBB245:
	.loc 1 276 0
	xorl	%eax, %eax
.LBE245:
.LBE244:
.LBB250:
.LBB243:
	.loc 1 287 0
	movq	%rdx, 104(%rbp)
	.loc 1 285 0
	movq	%r13, 64(%rbp)
.LVL269:
.LBE243:
.LBE250:
.LBB251:
.LBB246:
	.loc 1 276 0
	call	alloc_edge
.LVL270:
	movq	%rax, %rbx
.LVL271:
	.loc 1 281 0
	leaq	32(%rax), %rdx
.LVL272:
.LBE246:
.LBE251:
	.loc 1 144 0
	movq	%rbp, %rsi
.LBB252:
.LBB247:
	.loc 1 279 0
	movq	%rax, 8(%rbx)
	.loc 1 283 0
	leaq	64(%rbx), %rcx
	.loc 1 280 0
	movq	%r13, (%rax)
	.loc 1 282 0
	leaq	96(%rax), %rax
.LVL273:
.LBE247:
.LBE252:
	.loc 1 144 0
	xorq	$64, %rsi
.LBB253:
.LBB248:
	.loc 1 282 0
	movq	%rax, 40(%rbx)
	.loc 1 284 0
	movq	%rcx, 8(%rcx)
	.loc 1 287 0
	movq	%rdx, 104(%rbx)
.LBE248:
.LBE253:
.LBB254:
.LBB255:
	.loc 1 302 0
	movq	8(%rsi), %rax
	.loc 1 303 0
	movq	8(%rbx), %rcx
.LVL274:
.LBE255:
.LBE254:
.LBB258:
.LBB249:
	.loc 1 285 0
	movq	%r14, 64(%rbx)
.LVL275:
.LBE249:
.LBE258:
.LBB259:
.LBB256:
	.loc 1 302 0
	leaq	32(%rax), %rdx
	andq	$-128, %rax
	andl	$127, %edx
	orq	%rax, %rdx
.LVL276:
	.loc 1 303 0
	leaq	32(%rcx), %rax
	andq	$-128, %rcx
	andl	$127, %eax
	orq	%rcx, %rax
.LVL277:
	.loc 1 306 0
	movq	8(%rdx), %rcx
	.loc 1 305 0
	movq	8(%rax), %rdi
.LVL278:
	.loc 1 307 0
	movq	%rdi, 8(%rdx)
	.loc 1 310 0
	movq	%rcx, 8(%rax)
.LBE256:
.LBE259:
	.loc 1 145 0
	movq	%rbx, %rdi
.LVL279:
.LBB260:
.LBB257:
	.loc 1 312 0
	movq	8(%rsi), %rdx
.LVL280:
	.loc 1 313 0
	movq	8(%rbx), %rax
.LVL281:
	.loc 1 314 0
	movq	%rdx, 8(%rbx)
	.loc 1 315 0
	movq	%rax, 8(%rsi)
.LVL282:
.LBE257:
.LBE260:
	.loc 1 145 0
	xorl	%eax, %eax
	movq	%rbp, %rsi
	call	connect_left
.LVL283:
.LBB261:
.LBB262:
	.loc 1 257 0
	movsd	(%r12), %xmm2
.LVL284:
	.loc 1 259 0
	movsd	8(%r14), %xmm6
	.loc 1 261 0
	movsd	0(%r13), %xmm1
	.loc 1 264 0
	movapd	%xmm2, %xmm0
	.loc 1 261 0
	movsd	8(%r13), %xmm3
	.loc 1 264 0
	movapd	%xmm6, %xmm4
	.loc 1 257 0
	movsd	8(%r12), %xmm5
.LVL285:
	.loc 1 264 0
	subsd	%xmm1, %xmm0
	.loc 1 259 0
	movsd	(%r14), %xmm7
.LVL286:
	.loc 1 264 0
	subsd	%xmm3, %xmm4
	movapd	%xmm5, %xmm8
	subsd	%xmm3, %xmm8
	mulsd	%xmm4, %xmm0
	movapd	%xmm7, %xmm4
	subsd	%xmm1, %xmm4
	mulsd	%xmm8, %xmm4
	subsd	%xmm4, %xmm0
.LBE262:
.LBE261:
	.loc 1 146 0
	pxor	%xmm4, %xmm4
	ucomisd	%xmm4, %xmm0
	jbe	.L97
	.loc 1 147 0
	movq	%rax, %rbp
.LVL287:
	.loc 1 148 0
	movq	%rax, %rdx
	.loc 1 147 0
	xorq	$64, %rbp
.LVL288:
.L89:
	.loc 1 157 0
	addq	$16, %rsp
	.cfi_remember_state
	.cfi_def_cfa_offset 48
	movq	%rbp, %rax
.LVL289:
	popq	%rbx
	.cfi_def_cfa_offset 40
	popq	%rbp
	.cfi_def_cfa_offset 32
	popq	%r12
	.cfi_def_cfa_offset 24
	popq	%r13
	.cfi_def_cfa_offset 16
.LVL290:
	popq	%r14
	.cfi_def_cfa_offset 8
.LVL291:
	ret
.LVL292:
	.p2align 4,,10
	.p2align 3
.L99:
	.cfi_restore_state
	movq	%r13, %rbx
	jmp	.L86
.LVL293:
	.p2align 4,,10
	.p2align 3
.L101:
	movq	%r12, %rbx
.LVL294:
.LBB263:
.LBB264:
	.loc 1 93 0
	movq	24(%r12), %r12
.L86:
.LVL295:
	testq	%r12, %r12
	jne	.L101
.LVL296:
.LBE264:
.LBE263:
	.loc 1 115 0
	movq	%r14, %rsi
.LVL297:
	call	build_delaunay
.LVL298:
	.loc 1 116 0
	movq	24(%r13), %rdi
	.loc 1 115 0
	movq	%rax, %rbp
	movq	%rdx, %r12
	.loc 1 116 0
	movq	%r13, %rsi
	call	build_delaunay
.LVL299:
	.loc 1 119 0
	movq	%r12, %rcx
	.loc 1 116 0
	movq	%rdx, %rsi
.LVL300:
	.loc 1 119 0
	movq	%rax, %rdi
	movq	%rbp, %rdx
.LVL301:
	call	do_merge
.LVL302:
	.loc 1 122 0
	cmpq	(%rax), %rbx
	.loc 1 119 0
	movq	%rdx, %rcx
	movq	%rax, %rbp
.LVL303:
	.loc 1 122 0
	je	.L87
.LVL304:
	.p2align 4,,10
	.p2align 3
.L88:
	.loc 1 122 0 is_stmt 0 discriminator 2
	xorq	$64, %rbp
.LVL305:
	movq	8(%rbp), %rbp
.LVL306:
	cmpq	%rbx, 0(%rbp)
	jne	.L88
.L87:
.LVL307:
	.loc 1 123 0 is_stmt 1
	cmpq	%r14, (%rcx)
	je	.L89
.LVL308:
	.p2align 4,,10
	.p2align 3
.L90:
	.loc 1 123 0 is_stmt 0 discriminator 2
	movq	8(%rdx), %rdx
.LVL309:
	xorq	$64, %rdx
.LVL310:
	cmpq	%r14, (%rdx)
	jne	.L90
.LVL311:
	.loc 1 157 0 is_stmt 1
	addq	$16, %rsp
	.cfi_remember_state
	.cfi_def_cfa_offset 48
	movq	%rbp, %rax
.LVL312:
	popq	%rbx
	.cfi_def_cfa_offset 40
	popq	%rbp
	.cfi_def_cfa_offset 32
.LVL313:
	popq	%r12
	.cfi_def_cfa_offset 24
	popq	%r13
	.cfi_def_cfa_offset 16
.LVL314:
	popq	%r14
	.cfi_def_cfa_offset 8
.LVL315:
	ret
.LVL316:
	.p2align 4,,10
	.p2align 3
.L97:
	.cfi_restore_state
.LBB265:
.LBB266:
	.loc 1 264 0
	subsd	%xmm7, %xmm2
.LBE266:
.LBE265:
	.loc 1 152 0
	xorq	$64, %rbx
.LVL317:
.LBB269:
.LBB267:
	.loc 1 264 0
	subsd	%xmm6, %xmm3
.LBE267:
.LBE269:
	.loc 1 152 0
	movq	%rbx, %rdx
.LVL318:
.LBB270:
.LBB268:
	.loc 1 264 0
	subsd	%xmm7, %xmm1
	subsd	%xmm6, %xmm5
	mulsd	%xmm3, %xmm2
	mulsd	%xmm5, %xmm1
	subsd	%xmm1, %xmm2
.LBE268:
.LBE270:
	.loc 1 153 0
	ucomisd	%xmm4, %xmm2
	ja	.L89
	.loc 1 153 0 is_stmt 0 discriminator 1
	movq	%rax, %rdi
	xorl	%eax, %eax
.LVL319:
	movq	%rbx, 8(%rsp)
	call	deleteedge
.LVL320:
	movq	8(%rsp), %rdx
	jmp	.L89
.LVL321:
	.p2align 4,,10
	.p2align 3
.L100:
.LBB271:
.LBB239:
	.loc 1 276 0 is_stmt 1
	call	alloc_edge
.LVL322:
	movq	%rax, %rbp
.LVL323:
	.loc 1 281 0
	leaq	32(%rax), %rdx
.LVL324:
	.loc 1 279 0
	movq	%rax, 8(%rbp)
	.loc 1 283 0
	leaq	64(%rbp), %rcx
	.loc 1 280 0
	movq	%r13, (%rax)
	.loc 1 282 0
	leaq	96(%rax), %rax
.LVL325:
	movq	%rax, 40(%rbp)
	.loc 1 284 0
	movq	%rcx, 8(%rcx)
.LBE239:
.LBE271:
	.loc 1 157 0
	movq	%rbp, %rax
.LBB272:
.LBB240:
	.loc 1 287 0
	movq	%rdx, 104(%rbp)
	.loc 1 285 0
	movq	%r14, 64(%rbp)
.LVL326:
.LBE240:
.LBE272:
	.loc 1 135 0
	movq	%rbp, %rdx
	.loc 1 157 0
	addq	$16, %rsp
	.cfi_remember_state
	.cfi_def_cfa_offset 48
	.loc 1 135 0
	xorq	$64, %rdx
.LVL327:
	.loc 1 157 0
	popq	%rbx
	.cfi_def_cfa_offset 40
	popq	%rbp
	.cfi_def_cfa_offset 32
.LVL328:
	popq	%r12
	.cfi_def_cfa_offset 24
	popq	%r13
	.cfi_def_cfa_offset 16
.LVL329:
	popq	%r14
	.cfi_def_cfa_offset 8
.LVL330:
	ret
.LVL331:
.L83:
	.cfi_restore_state
.LBB273:
.LBB274:
	.loc 2 104 0
	leaq	.LC5(%rip), %rdi
.LVL332:
	call	puts@PLT
.LVL333:
.LBE274:
.LBE273:
	.loc 1 130 0
	orl	$-1, %edi
	call	exit@PLT
.LVL334:
	.cfi_endproc
.LFE27:
	.size	build_delaunay, .-build_delaunay
	.p2align 4,,15
	.globl	build_delaunay_triangulation
	.type	build_delaunay_triangulation, @function
build_delaunay_triangulation:
.LFB25:
	.loc 1 82 0
	.cfi_startproc
.LVL335:
	subq	$8, %rsp
	.cfi_def_cfa_offset 16
	.loc 1 85 0
	call	build_delaunay
.LVL336:
	.loc 1 87 0
	addq	$8, %rsp
	.cfi_def_cfa_offset 8
	ret
	.cfi_endproc
.LFE25:
	.size	build_delaunay_triangulation, .-build_delaunay_triangulation
	.section	.rodata.str1.1
.LC6:
	.string	"NULL"
.LC7:
	.string	"X=%f, Y=%f\n"
	.text
	.p2align 4,,15
	.globl	in_order
	.type	in_order, @function
in_order:
.LFB40:
	.loc 1 536 0
	.cfi_startproc
.LVL337:
	.loc 1 540 0
	testq	%rdi, %rdi
	je	.L115
	.loc 1 536 0
	pushq	%rbp
	.cfi_def_cfa_offset 16
	.cfi_offset 6, -16
	pushq	%rbx
	.cfi_def_cfa_offset 24
	.cfi_offset 3, -24
	leaq	.LC7(%rip), %rbp
	movq	%rdi, %rbx
	subq	$8, %rsp
	.cfi_def_cfa_offset 32
.LVL338:
.L105:
.LBB275:
.LBB276:
	.loc 2 104 0
	movsd	8(%rbx), %xmm1
	movq	%rbp, %rsi
	movl	$1, %edi
	movsd	(%rbx), %xmm0
	movl	$2, %eax
	call	__printf_chk@PLT
.LVL339:
.LBE276:
.LBE275:
	.loc 1 549 0
	movq	24(%rbx), %rdi
	xorl	%eax, %eax
	call	in_order
.LVL340:
	.loc 1 550 0
	movq	32(%rbx), %rbx
.LVL341:
	.loc 1 540 0
	testq	%rbx, %rbx
	jne	.L105
.LVL342:
	.loc 1 552 0
	addq	$8, %rsp
	.cfi_def_cfa_offset 24
.LBB277:
.LBB278:
	.loc 2 104 0
	leaq	.LC6(%rip), %rdi
.LBE278:
.LBE277:
	.loc 1 552 0
	popq	%rbx
	.cfi_restore 3
	.cfi_def_cfa_offset 16
.LVL343:
	popq	%rbp
	.cfi_restore 6
	.cfi_def_cfa_offset 8
.LBB280:
.LBB279:
	.loc 2 104 0
	jmp	puts@PLT
.LVL344:
	.p2align 4,,10
	.p2align 3
.L115:
	leaq	.LC6(%rip), %rdi
.LVL345:
	jmp	puts@PLT
.LVL346:
.LBE279:
.LBE280:
	.cfi_endproc
.LFE40:
	.size	in_order, .-in_order
	.p2align 4,,15
	.globl	mult
	.type	mult, @function
mult:
.LFB41:
	.loc 1 555 0
	.cfi_startproc
.LVL347:
	.loc 1 558 0
	movl	$1759218605, %r8d
	movl	%edi, %eax
	movl	%edi, %r10d
	imull	%r8d
	sarl	$31, %r10d
	.loc 1 559 0
	movl	%esi, %eax
	movl	%esi, %r11d
	sarl	$31, %r11d
	.loc 1 558 0
	sarl	$12, %edx
	movl	%edx, %r9d
	movl	%edx, %ecx
	subl	%r10d, %r9d
	subl	%r10d, %ecx
	.loc 1 559 0
	imull	%r8d
	.loc 1 558 0
	imull	$10000, %r9d, %r9d
	.loc 1 559 0
	sarl	$12, %edx
	.loc 1 558 0
	subl	%r9d, %edi
.LVL348:
	movl	%edi, %r9d
.LVL349:
	.loc 1 559 0
	movl	%edx, %edi
.LVL350:
	subl	%r11d, %edx
	subl	%r11d, %edi
	imull	$10000, %edi, %edi
	.loc 1 560 0
	imull	%r9d, %edx
	.loc 1 559 0
	subl	%edi, %esi
.LVL351:
	.loc 1 560 0
	imull	%esi, %ecx
	imull	%esi, %r9d
.LVL352:
	addl	%edx, %ecx
	movl	%ecx, %eax
	imull	%r8d
	movl	%ecx, %eax
	sarl	$31, %eax
	movl	%edx, %r8d
.LVL353:
	sarl	$12, %r8d
	subl	%eax, %r8d
	imull	$10000, %r8d, %r8d
	subl	%r8d, %ecx
	imull	$10000, %ecx, %eax
	addl	%r9d, %eax
	.loc 1 561 0
	ret
	.cfi_endproc
.LFE41:
	.size	mult, .-mult
	.p2align 4,,15
	.globl	skiprand
	.type	skiprand, @function
skiprand:
.LFB42:
	.loc 1 565 0
	.cfi_startproc
.LVL354:
	.loc 1 566 0
	testl	%esi, %esi
	je	.L118
.LBB281:
.LBB282:
.LBB283:
.LBB284:
	.loc 1 558 0
	movl	$1759218605, %r9d
.LVL355:
	.p2align 4,,10
	.p2align 3
.L119:
	movl	%edi, %eax
	imull	%r9d
	movl	%edi, %eax
	sarl	$31, %eax
	sarl	$12, %edx
	movl	%edx, %r8d
	subl	%eax, %edx
	subl	%eax, %r8d
	imull	$10000, %r8d, %r8d
	.loc 1 560 0
	imull	$5821, %edx, %ecx
	.loc 1 558 0
	subl	%r8d, %edi
.LVL356:
	.loc 1 560 0
	imull	$3141, %edi, %eax
	imull	$5821, %edi, %r8d
	addl	%eax, %ecx
	movl	%ecx, %eax
	imull	%r9d
	movl	%ecx, %eax
	sarl	$31, %eax
	sarl	$12, %edx
	subl	%eax, %edx
	imull	$10000, %edx, %edx
	subl	%edx, %ecx
	imull	$10000, %ecx, %ecx
.LBE284:
.LBE283:
.LBE282:
.LBE281:
	.loc 1 566 0
	subl	$1, %esi
.LVL357:
.LBB286:
.LBB285:
	.loc 1 572 0
	leal	1(%rcx,%r8), %edi
.LVL358:
.LBE285:
.LBE286:
	.loc 1 566 0
	jne	.L119
.L118:
	.loc 1 568 0
	movl	%edi, %eax
	ret
	.cfi_endproc
.LFE42:
	.size	skiprand, .-skiprand
	.p2align 4,,15
	.globl	myrandom
	.type	myrandom, @function
myrandom:
.LFB43:
	.loc 1 571 0
	.cfi_startproc
.LVL359:
.LBB287:
.LBB288:
	.loc 1 558 0
	movl	$1759218605, %esi
	movl	%edi, %eax
	imull	%esi
	movl	%edi, %eax
	sarl	$31, %eax
	sarl	$12, %edx
	movl	%edx, %r8d
	subl	%eax, %edx
	subl	%eax, %r8d
	imull	$10000, %r8d, %r8d
	.loc 1 560 0
	imull	$5821, %edx, %ecx
	.loc 1 558 0
	subl	%r8d, %edi
.LVL360:
	.loc 1 560 0
	imull	$3141, %edi, %eax
	imull	$5821, %edi, %r8d
	addl	%eax, %ecx
	movl	%ecx, %eax
	imull	%esi
	movl	%ecx, %eax
	sarl	$31, %eax
	movl	%edx, %esi
	sarl	$12, %esi
	subl	%eax, %esi
	imull	$10000, %esi, %esi
	subl	%esi, %ecx
	imull	$10000, %ecx, %ecx
.LVL361:
.LBE288:
.LBE287:
	.loc 1 572 0
	leal	1(%rcx,%r8), %eax
	.loc 1 574 0
	ret
	.cfi_endproc
.LFE43:
	.size	myrandom, .-myrandom
	.p2align 4,,15
	.globl	print_extra
	.type	print_extra, @function
print_extra:
.LFB44:
	.loc 1 578 0
	.cfi_startproc
.LVL362:
.LBB289:
.LBB290:
	.loc 2 104 0
	movsd	8(%rdi), %xmm1
	leaq	.LC7(%rip), %rsi
	movsd	(%rdi), %xmm0
	movl	$2, %eax
	movl	$1, %edi
.LVL363:
	jmp	__printf_chk@PLT
.LVL364:
.LBE290:
.LBE289:
	.cfi_endproc
.LFE44:
	.size	print_extra, .-print_extra
	.p2align 4,,15
	.globl	allocate_stack
	.type	allocate_stack, @function
allocate_stack:
.LFB46:
	.loc 1 618 0
	.cfi_startproc
.LVL365:
	pushq	%rbp
	.cfi_def_cfa_offset 16
	.cfi_offset 6, -16
	pushq	%rbx
	.cfi_def_cfa_offset 24
	.cfi_offset 3, -24
	.loc 1 621 0
	leal	(%rdi,%rdi,2), %ebx
	.loc 1 622 0
	movl	$24, %edi
.LVL366:
	.loc 1 618 0
	subq	$8, %rsp
	.cfi_def_cfa_offset 32
	.loc 1 621 0
	sall	$2, %ebx
	movl	%ebx, num_edgeparts(%rip)
	.loc 1 622 0
	call	malloc@PLT
.LVL367:
	.loc 1 623 0
	movslq	%ebx, %rdi
	.loc 1 622 0
	movq	%rax, %rbp
.LVL368:
	.loc 1 624 0
	sarl	%ebx
	.loc 1 623 0
	salq	$3, %rdi
	call	malloc@PLT
.LVL369:
	.loc 1 624 0
	movl	%ebx, 16(%rbp)
	.loc 1 623 0
	movq	%rax, 8(%rbp)
	.loc 1 626 0
	addq	$8, %rsp
	.cfi_def_cfa_offset 24
	movq	%rbp, %rax
	popq	%rbx
	.cfi_def_cfa_offset 16
	popq	%rbp
	.cfi_def_cfa_offset 8
.LVL370:
	ret
	.cfi_endproc
.LFE46:
	.size	allocate_stack, .-allocate_stack
	.p2align 4,,15
	.globl	free_all
	.type	free_all, @function
free_all:
.LFB47:
	.loc 1 631 0
	.cfi_startproc
.LVL371:
	.loc 1 632 0
	movq	8(%rsi), %rdi
.LVL372:
	.loc 1 631 0
	pushq	%rbx
	.cfi_def_cfa_offset 16
	.cfi_offset 3, -16
	.loc 1 631 0
	movq	%rsi, %rbx
	.loc 1 632 0
	call	free@PLT
.LVL373:
	.loc 1 633 0
	movq	%rbx, %rdi
	.loc 1 634 0
	popq	%rbx
	.cfi_def_cfa_offset 8
.LVL374:
	.loc 1 633 0
	jmp	free@PLT
.LVL375:
	.cfi_endproc
.LFE47:
	.size	free_all, .-free_all
	.p2align 4,,15
	.globl	get_points
	.type	get_points, @function
get_points:
.LFB48:
	.loc 1 638 0
	.cfi_startproc
.LVL376:
	subq	$40, %rsp
	.cfi_def_cfa_offset 48
	.loc 1 638 0
	movq	%rdi, %rax
	movq	%fs:40, %rdi
	movq	%rdi, 24(%rsp)
	xorl	%edi, %edi
.LVL377:
	.loc 1 645 0
	testl	%esi, %esi
	jg	.L131
.LVL378:
	.loc 1 649 0
	movsd	%xmm0, 8(%rax)
	movq	$0, (%rax)
	movl	%ecx, 16(%rax)
.LVL379:
.L130:
	.loc 1 672 0
	movq	24(%rsp), %rdi
	xorq	%fs:40, %rdi
	jne	.L135
	addq	$40, %rsp
	.cfi_remember_state
	.cfi_def_cfa_offset 8
	ret
.LVL380:
	.p2align 4,,10
	.p2align 3
.L131:
	.cfi_restore_state
	movq	%rax, %rdi
	movq	%rax, 8(%rsp)
	call	get_points.part.1
.LVL381:
	movq	8(%rsp), %rax
	jmp	.L130
.LVL382:
.L135:
	call	__stack_chk_fail@PLT
.LVL383:
	.cfi_endproc
.LFE48:
	.size	get_points, .-get_points
	.p2align 4,,15
	.type	get_points.part.1, @function
get_points.part.1:
.LFB55:
	.loc 1 636 0
	.cfi_startproc
.LVL384:
	pushq	%r15
	.cfi_def_cfa_offset 16
	.cfi_offset 15, -16
	pushq	%r14
	.cfi_def_cfa_offset 24
	.cfi_offset 14, -24
	movl	%r8d, %r10d
	pushq	%r13
	.cfi_def_cfa_offset 32
	.cfi_offset 13, -32
	pushq	%r12
	.cfi_def_cfa_offset 40
	.cfi_offset 12, -40
	.loc 1 652 0
	movl	%r9d, %r12d
	.loc 1 636 0
	pushq	%rbp
	.cfi_def_cfa_offset 48
	.cfi_offset 6, -48
	pushq	%rbx
	.cfi_def_cfa_offset 56
	.cfi_offset 3, -56
	.loc 1 652 0
	movl	%esi, %ebx
	shrl	$31, %r12d
	shrl	$31, %ebx
	.loc 1 636 0
	movq	%rdi, %r14
	subq	$72, %rsp
	.cfi_def_cfa_offset 128
	.loc 1 652 0
	addl	%r9d, %r12d
	addl	%esi, %ebx
	leaq	32(%rsp), %r15
	sarl	%ebx
	sarl	%r12d
	movl	%r12d, %r9d
.LVL385:
	movl	%ebx, %esi
.LVL386:
	addl	%r12d, %r8d
.LVL387:
	movq	%r15, %rdi
.LVL388:
	movl	%r10d, 28(%rsp)
	.loc 1 636 0
	movl	%edx, %ebp
	movq	%fs:40, %rax
	movq	%rax, 56(%rsp)
	xorl	%eax, %eax
	.loc 1 652 0
	call	get_points
.LVL389:
	movq	32(%rsp), %r8
	movl	48(%rsp), %ecx
	.loc 1 658 0
	movl	$40, %edi
	.loc 1 652 0
	movsd	40(%rsp), %xmm3
	.loc 1 654 0
	subl	%ebx, %ebp
.LVL390:
	.loc 1 652 0
	movq	%r8, 16(%rsp)
.LVL391:
	movsd	%xmm3, (%rsp)
.LVL392:
	movl	%ecx, 12(%rsp)
.LVL393:
	.loc 1 658 0
	call	malloc@PLT
.LVL394:
.LBB291:
.LBB292:
.LBB293:
.LBB294:
	.loc 1 558 0
	movl	12(%rsp), %ecx
.LBE294:
.LBE293:
.LBE292:
.LBE291:
	.loc 1 658 0
	movq	%rax, %r13
.LVL395:
.LBB301:
.LBB299:
.LBB297:
.LBB295:
	.loc 1 558 0
	movl	$1759218605, %esi
.LBE295:
.LBE297:
.LBE299:
.LBE301:
	.loc 1 662 0
	pxor	%xmm0, %xmm0
.LBB302:
.LBB300:
.LBB298:
.LBB296:
	.loc 1 560 0
	movl	%esi, 24(%rsp)
	.loc 1 558 0
	movl	%ecx, %eax
.LVL396:
	imull	%esi
	movl	%ecx, %eax
	sarl	$31, %eax
	sarl	$12, %edx
	movl	%edx, %edi
	subl	%eax, %edx
	subl	%eax, %edi
	imull	$10000, %edi, %edi
	subl	%edi, %ecx
.LVL397:
	movl	%ecx, %edi
.LVL398:
	.loc 1 560 0
	imull	$3141, %edi, %eax
	imull	$5821, %edx, %ecx
	addl	%eax, %ecx
	movl	%ecx, %eax
	imull	%esi
	movl	%ecx, %eax
	sarl	$31, %eax
	sarl	$12, %edx
	subl	%eax, %edx
	imull	$10000, %edx, %edx
	imull	$5821, %edi, %edi
	subl	%edx, %ecx
	imull	$10000, %ecx, %ecx
.LBE296:
.LBE298:
	.loc 1 572 0
	leal	1(%rcx,%rdi), %ecx
.LVL399:
.LBE300:
.LBE302:
	.loc 1 662 0
	cvtsi2sd	%ecx, %xmm0
	movl	%ecx, 12(%rsp)
	divsd	.LC8(%rip), %xmm0
	call	log@PLT
.LVL400:
	pxor	%xmm1, %xmm1
	cvtsi2sd	%ebp, %xmm1
	divsd	%xmm1, %xmm0
	call	exp@PLT
.LVL401:
.LBB303:
.LBB304:
.LBB305:
.LBB306:
	.loc 1 558 0
	movl	12(%rsp), %ecx
	movl	24(%rsp), %esi
.LBE306:
.LBE305:
.LBE304:
.LBE303:
	.loc 1 667 0
	movl	%r12d, %r9d
	.loc 1 663 0
	pxor	%xmm1, %xmm1
	.loc 1 665 0
	movq	16(%rsp), %r8
	.loc 1 662 0
	mulsd	(%rsp), %xmm0
	.loc 1 667 0
	movl	28(%rsp), %r10d
.LBB331:
.LBB323:
.LBB315:
.LBB307:
	.loc 1 558 0
	movl	%ecx, %eax
	imull	%esi
	movl	%ecx, %eax
.LBE307:
.LBE315:
.LBE323:
.LBE331:
	.loc 1 665 0
	movq	%r8, 32(%r13)
.LBB332:
.LBB324:
.LBB316:
.LBB308:
	.loc 1 558 0
	sarl	$31, %eax
.LBE308:
.LBE316:
.LBE324:
.LBE332:
	.loc 1 667 0
	movl	%r10d, %r8d
.LBB333:
.LBB325:
.LBB317:
.LBB309:
	.loc 1 558 0
	sarl	$12, %edx
	movl	%edx, %edi
	subl	%eax, %edx
.LBE309:
.LBE317:
.LBE325:
.LBE333:
	.loc 1 662 0
	movsd	%xmm0, 0(%r13)
.LVL402:
.LBB334:
.LBB326:
.LBB318:
.LBB310:
	.loc 1 558 0
	subl	%eax, %edi
.LBE310:
.LBE318:
.LBE326:
.LBE334:
	.loc 1 664 0
	movapd	%xmm0, %xmm2
.LBB335:
.LBB327:
.LBB319:
.LBB311:
	.loc 1 558 0
	imull	$10000, %edi, %edi
.LBE311:
.LBE319:
.LBE327:
.LBE335:
	.loc 1 664 0
	mulsd	%xmm0, %xmm2
.LBB336:
.LBB328:
.LBB320:
.LBB312:
	.loc 1 558 0
	subl	%edi, %ecx
.LVL403:
	movl	%ecx, %edi
.LVL404:
	.loc 1 560 0
	imull	$3141, %edi, %eax
	imull	$5821, %edx, %ecx
	addl	%eax, %ecx
	movl	%ecx, %eax
	imull	%esi
	movl	%ecx, %eax
	sarl	$31, %eax
	movl	%edx, %esi
.LBE312:
.LBE320:
.LBE328:
.LBE336:
	.loc 1 667 0
	leal	-1(%rbp), %edx
.LBB337:
.LBB329:
.LBB321:
.LBB313:
	.loc 1 560 0
	sarl	$12, %esi
	subl	%eax, %esi
	imull	$10000, %esi, %esi
	imull	$5821, %edi, %edi
	subl	%esi, %ecx
.LBE313:
.LBE321:
.LBE329:
.LBE337:
	.loc 1 667 0
	movl	%ebx, %esi
.LBB338:
.LBB330:
.LBB322:
.LBB314:
	.loc 1 560 0
	imull	$10000, %ecx, %ecx
.LBE314:
.LBE322:
	.loc 1 572 0
	leal	1(%rcx,%rdi), %ecx
.LVL405:
.LBE330:
.LBE338:
	.loc 1 667 0
	movq	%r15, %rdi
	.loc 1 663 0
	cvtsi2sd	%ecx, %xmm1
	divsd	.LC8(%rip), %xmm1
	movsd	%xmm1, 8(%r13)
	.loc 1 664 0
	mulsd	%xmm1, %xmm1
	addsd	%xmm2, %xmm1
	movsd	%xmm1, 16(%r13)
	.loc 1 667 0
	call	get_points
.LVL406:
	.loc 1 669 0
	movq	32(%rsp), %rax
	.loc 1 671 0
	movq	%r13, 32(%rsp)
.LVL407:
	movdqa	32(%rsp), %xmm0
	.loc 1 669 0
	movq	%rax, 24(%r13)
.LVL408:
	.loc 1 671 0
	movq	48(%rsp), %rax
	.loc 1 672 0
	movq	56(%rsp), %rbx
	xorq	%fs:40, %rbx
	.loc 1 671 0
	movups	%xmm0, (%r14)
	movq	%rax, 16(%r14)
.LVL409:
	.loc 1 672 0
	jne	.L139
	addq	$72, %rsp
	.cfi_remember_state
	.cfi_def_cfa_offset 56
	movq	%r14, %rax
	popq	%rbx
	.cfi_def_cfa_offset 48
	popq	%rbp
	.cfi_def_cfa_offset 40
.LVL410:
	popq	%r12
	.cfi_def_cfa_offset 32
	popq	%r13
	.cfi_def_cfa_offset 24
.LVL411:
	popq	%r14
	.cfi_def_cfa_offset 16
.LVL412:
	popq	%r15
	.cfi_def_cfa_offset 8
.LVL413:
	ret
.LVL414:
.L139:
	.cfi_restore_state
	call	__stack_chk_fail@PLT
.LVL415:
	.cfi_endproc
.LFE55:
	.size	get_points.part.1, .-get_points.part.1
	.section	.rodata.str1.1
.LC9:
	.string	"argc = %d\n"
.LC10:
	.string	"getting %d points\n"
.LC12:
	.string	"Done getting points"
.LC13:
	.string	"Doing voronoi on %d nodes\n"
	.section	.text.startup,"ax",@progbits
	.p2align 4,,15
	.globl	main
	.type	main, @function
main:
.LFB45:
	.loc 1 585 0
	.cfi_startproc
.LVL416:
	pushq	%r13
	.cfi_def_cfa_offset 16
	.cfi_offset 13, -16
	pushq	%r12
	.cfi_def_cfa_offset 24
	.cfi_offset 12, -24
.LBB339:
.LBB340:
	.loc 2 104 0
	movl	%edi, %edx
.LBE340:
.LBE339:
	.loc 1 585 0
	pushq	%rbp
	.cfi_def_cfa_offset 32
	.cfi_offset 6, -32
	pushq	%rbx
	.cfi_def_cfa_offset 40
	.cfi_offset 3, -40
	movq	%rsi, %rbp
.LBB344:
.LBB341:
	.loc 2 104 0
	leaq	.LC9(%rip), %rsi
.LVL417:
.LBE341:
.LBE344:
	.loc 1 585 0
	movl	%edi, %ebx
.LBB345:
.LBB342:
	.loc 2 104 0
	movl	$1, %edi
.LVL418:
.LBE342:
.LBE345:
	.loc 1 585 0
	subq	$72, %rsp
	.cfi_def_cfa_offset 112
	.loc 1 590 0
	movl	$0, to_color(%rip)
	movl	$0, to_3d_out(%rip)
	.loc 1 585 0
	movq	%fs:40, %rax
	movq	%rax, 56(%rsp)
	xorl	%eax, %eax
	.loc 1 590 0
	movl	$0, to_off(%rip)
	movl	$0, to_lincoln(%rip)
	.loc 1 591 0
	movl	$1, delaunay(%rip)
	movl	$1, voronoi(%rip)
	movl	$0, ahost(%rip)
	movl	$0, interactive(%rip)
.LVL419:
.LBB346:
.LBB343:
	.loc 2 104 0
	call	__printf_chk@PLT
.LVL420:
.LBE343:
.LBE346:
	.loc 1 595 0
	movq	%rbp, %rsi
	movl	%ebx, %edi
	call	dealwithargs@PLT
.LVL421:
.LBB347:
.LBB348:
	.loc 2 104 0
	leaq	.LC10(%rip), %rsi
.LBE348:
.LBE347:
	.loc 1 595 0
	movl	%eax, %ebx
.LVL422:
.LBB350:
.LBB349:
	.loc 2 104 0
	movl	%eax, %edx
	movl	$1, %edi
	xorl	%eax, %eax
.LVL423:
	call	__printf_chk@PLT
.LVL424:
.LBE349:
.LBE350:
.LBB351:
.LBB352:
	movl	NumNodes(%rip), %eax
	leaq	32(%rsp), %rdi
	movl	$1, %r9d
	movsd	.LC11(%rip), %xmm0
	movl	$1023, %ecx
	movl	%ebx, %edx
	movl	$1, %esi
	leal	-1(%rax), %r8d
.LVL425:
	call	get_points.part.1
.LVL426:
.LBE352:
.LBE351:
	.loc 1 601 0
	leal	-1(%rbx), %esi
	movl	48(%rsp), %ecx
	movl	NumNodes(%rip), %r9d
	movsd	40(%rsp), %xmm0
	xorl	%r8d, %r8d
	movl	%esi, %edx
	movq	%rsp, %rdi
.LBB354:
.LBB353:
	movq	32(%rsp), %rbp
.LVL427:
.LBE353:
.LBE354:
	call	get_points
.LVL428:
.LBB355:
.LBB356:
	.loc 2 104 0
	leaq	.LC12(%rip), %rdi
.LBE356:
.LBE355:
	.loc 1 601 0
	movq	(%rsp), %r12
.LVL429:
.LBB358:
.LBB357:
	.loc 2 104 0
	call	puts@PLT
.LVL430:
.LBE357:
.LBE358:
	.loc 1 603 0
	leal	1(%rbx), %edi
	movl	%edi, num_vertices(%rip)
	.loc 1 604 0
	call	allocate_stack
.LVL431:
	.loc 1 605 0
	movl	flag(%rip), %ecx
	.loc 1 604 0
	movq	%rax, %r13
.LVL432:
	.loc 1 605 0
	testl	%ecx, %ecx
	jne	.L147
.LVL433:
.L142:
.LBB359:
.LBB360:
	.loc 2 104 0
	leaq	.LC13(%rip), %rsi
	movl	%ebx, %edx
	movl	$1, %edi
	xorl	%eax, %eax
	call	__printf_chk@PLT
.LVL434:
.LBE360:
.LBE359:
.LBB361:
.LBB362:
	.loc 1 85 0
	movq	%rbp, %rsi
	movq	%r12, %rdi
	call	build_delaunay
.LVL435:
.LBE362:
.LBE361:
	.loc 1 611 0
	movl	flag(%rip), %edx
	testl	%edx, %edx
	je	.L144
	.loc 1 611 0 is_stmt 0 discriminator 1
	movq	%r13, %rdx
	movl	%ebx, %esi
.LVL436:
	movq	%rax, %rdi
	call	output_voronoi_diagram@PLT
.LVL437:
.L144:
	.loc 1 615 0 is_stmt 1
	xorl	%eax, %eax
	movq	56(%rsp), %rcx
	xorq	%fs:40, %rcx
	jne	.L148
	addq	$72, %rsp
	.cfi_remember_state
	.cfi_def_cfa_offset 40
	popq	%rbx
	.cfi_def_cfa_offset 32
.LVL438:
	popq	%rbp
	.cfi_def_cfa_offset 24
	popq	%r12
	.cfi_def_cfa_offset 16
	popq	%r13
	.cfi_def_cfa_offset 8
.LVL439:
	ret
.LVL440:
.L147:
	.cfi_restore_state
	.loc 1 605 0 discriminator 1
	xorl	%eax, %eax
.LVL441:
	movq	%r12, %rdi
	call	in_order
.LVL442:
	.loc 1 606 0 discriminator 1
	cmpl	$0, flag(%rip)
	je	.L142
.LVL443:
.LBB363:
.LBB364:
.LBB365:
.LBB366:
	.loc 2 104 0 discriminator 1
	movsd	8(%rbp), %xmm1
	leaq	.LC7(%rip), %rsi
	movl	$1, %edi
	movsd	0(%rbp), %xmm0
	movl	$2, %eax
	call	__printf_chk@PLT
.LVL444:
	jmp	.L142
.LVL445:
.L148:
.LBE366:
.LBE365:
.LBE364:
.LBE363:
	.loc 1 615 0
	call	__stack_chk_fail@PLT
.LVL446:
	.cfi_endproc
.LFE45:
	.size	main, .-main
	.text
	.p2align 4,,15
	.globl	pop_edge
	.type	pop_edge, @function
pop_edge:
.LFB49:
	.loc 1 683 0
	.cfi_startproc
.LVL447:
	.loc 1 684 0
	movslq	(%rdi), %rax
	leal	-1(%rax), %edx
	movl	%edx, (%rdi)
.LVL448:
	.loc 1 685 0
	movq	8(%rdi), %rdx
	movq	(%rdx,%rax,8), %rax
.LVL449:
	.loc 1 686 0
	ret
	.cfi_endproc
.LFE49:
	.size	pop_edge, .-pop_edge
	.section	.rodata.str1.8
	.align 8
.LC14:
	.string	"cannot push onto stack: stack is too large"
	.text
	.p2align 4,,15
	.globl	push_edge
	.type	push_edge, @function
push_edge:
.LFB50:
	.loc 1 688 0
	.cfi_startproc
.LVL450:
	.loc 1 691 0
	movl	(%rdi), %eax
	cmpl	16(%rdi), %eax
	je	.L152
.LVL451:
	.loc 1 698 0
	movq	8(%rdi), %rdx
	.loc 1 696 0
	addl	$1, %eax
.LVL452:
	.loc 1 697 0
	movl	%eax, (%rdi)
	.loc 1 698 0
	cltq
.LVL453:
	movq	%rsi, (%rdx,%rax,8)
	.loc 1 700 0
	ret
.LVL454:
	.p2align 4,,10
	.p2align 3
.L152:
.LBB371:
.LBB372:
.LBB373:
.LBB374:
	.loc 2 104 0
	leaq	.LC14(%rip), %rdi
.LVL455:
	jmp	puts@PLT
.LVL456:
.LBE374:
.LBE373:
.LBE372:
.LBE371:
	.cfi_endproc
.LFE50:
	.size	push_edge, .-push_edge
	.p2align 4,,15
	.globl	push_ring
	.type	push_ring, @function
push_ring:
.LFB51:
	.loc 1 702 0
	.cfi_startproc
.LVL457:
	pushq	%r13
	.cfi_def_cfa_offset 16
	.cfi_offset 13, -16
	pushq	%r12
	.cfi_def_cfa_offset 24
	.cfi_offset 12, -24
	pushq	%rbp
	.cfi_def_cfa_offset 32
	.cfi_offset 6, -32
	pushq	%rbx
	.cfi_def_cfa_offset 40
	.cfi_offset 3, -40
	subq	$8, %rsp
	.cfi_def_cfa_offset 48
	.loc 1 704 0
	movq	8(%rsi), %rbx
.LVL458:
	.loc 1 705 0
	cmpq	%rbx, %rsi
	je	.L153
.LBB381:
.LBB382:
.LBB383:
.LBB384:
.LBB385:
.LBB386:
	.loc 2 104 0
	leaq	.LC14(%rip), %r13
	movq	%rsi, %r12
	movq	%rdi, %rbp
.LVL459:
	.p2align 4,,10
	.p2align 3
.L157:
.LBE386:
.LBE385:
.LBE384:
.LBE383:
.LBE382:
.LBE381:
	.loc 1 706 0
	cmpq	$0, 16(%rbx)
	jne	.L155
.LBB394:
.LBB391:
	.loc 1 691 0
	movl	0(%rbp), %eax
	cmpl	16(%rbp), %eax
.LBE391:
.LBE394:
	.loc 1 707 0
	movq	$1, 16(%rbx)
.LVL460:
.LBB395:
.LBB392:
	.loc 1 691 0
	je	.L160
.LVL461:
	.loc 1 698 0
	movq	8(%rbp), %rdx
	.loc 1 696 0
	addl	$1, %eax
.LVL462:
	.loc 1 697 0
	movl	%eax, 0(%rbp)
	.loc 1 698 0
	cltq
.LVL463:
	movq	%rbx, (%rdx,%rax,8)
.LVL464:
.L155:
.LBE392:
.LBE395:
	.loc 1 710 0
	movq	8(%rbx), %rbx
.LVL465:
	.loc 1 705 0
	cmpq	%rbx, %r12
	jne	.L157
.LVL466:
.L153:
	.loc 1 712 0
	addq	$8, %rsp
	.cfi_remember_state
	.cfi_def_cfa_offset 40
	popq	%rbx
	.cfi_def_cfa_offset 32
.LVL467:
	popq	%rbp
	.cfi_def_cfa_offset 24
	popq	%r12
	.cfi_def_cfa_offset 16
	popq	%r13
	.cfi_def_cfa_offset 8
	ret
.LVL468:
	.p2align 4,,10
	.p2align 3
.L160:
	.cfi_restore_state
.LBB396:
.LBB393:
.LBB390:
.LBB389:
.LBB388:
.LBB387:
	.loc 2 104 0
	movq	%r13, %rdi
	call	puts@PLT
.LVL469:
	jmp	.L155
.LBE387:
.LBE388:
.LBE389:
.LBE390:
.LBE393:
.LBE396:
	.cfi_endproc
.LFE51:
	.size	push_ring, .-push_ring
	.p2align 4,,15
	.globl	push_nonzero_ring
	.type	push_nonzero_ring, @function
push_nonzero_ring:
.LFB52:
	.loc 1 717 0
	.cfi_startproc
.LVL470:
	pushq	%r13
	.cfi_def_cfa_offset 16
	.cfi_offset 13, -16
	pushq	%r12
	.cfi_def_cfa_offset 24
	.cfi_offset 12, -24
	pushq	%rbp
	.cfi_def_cfa_offset 32
	.cfi_offset 6, -32
	pushq	%rbx
	.cfi_def_cfa_offset 40
	.cfi_offset 3, -40
	subq	$8, %rsp
	.cfi_def_cfa_offset 48
	.loc 1 719 0
	movq	8(%rsi), %rbx
.LVL471:
	.loc 1 720 0
	cmpq	%rbx, %rsi
	je	.L161
.LBB403:
.LBB404:
.LBB405:
.LBB406:
.LBB407:
.LBB408:
	.loc 2 104 0
	leaq	.LC14(%rip), %r13
	movq	%rsi, %r12
	movq	%rdi, %rbp
.LVL472:
	.p2align 4,,10
	.p2align 3
.L165:
.LBE408:
.LBE407:
.LBE406:
.LBE405:
.LBE404:
.LBE403:
	.loc 1 721 0
	cmpq	$0, 16(%rbx)
	je	.L163
.LBB416:
.LBB413:
	.loc 1 691 0
	movl	0(%rbp), %eax
	cmpl	16(%rbp), %eax
.LBE413:
.LBE416:
	.loc 1 722 0
	movq	$0, 16(%rbx)
.LVL473:
.LBB417:
.LBB414:
	.loc 1 691 0
	je	.L168
.LVL474:
	.loc 1 698 0
	movq	8(%rbp), %rdx
	.loc 1 696 0
	addl	$1, %eax
.LVL475:
	.loc 1 697 0
	movl	%eax, 0(%rbp)
	.loc 1 698 0
	cltq
.LVL476:
	movq	%rbx, (%rdx,%rax,8)
.LVL477:
.L163:
.LBE414:
.LBE417:
	.loc 1 725 0
	movq	8(%rbx), %rbx
.LVL478:
	.loc 1 720 0
	cmpq	%rbx, %r12
	jne	.L165
.LVL479:
.L161:
	.loc 1 727 0
	addq	$8, %rsp
	.cfi_remember_state
	.cfi_def_cfa_offset 40
	popq	%rbx
	.cfi_def_cfa_offset 32
.LVL480:
	popq	%rbp
	.cfi_def_cfa_offset 24
	popq	%r12
	.cfi_def_cfa_offset 16
	popq	%r13
	.cfi_def_cfa_offset 8
	ret
.LVL481:
	.p2align 4,,10
	.p2align 3
.L168:
	.cfi_restore_state
.LBB418:
.LBB415:
.LBB412:
.LBB411:
.LBB410:
.LBB409:
	.loc 2 104 0
	movq	%r13, %rdi
	call	puts@PLT
.LVL482:
	jmp	.L163
.LBE409:
.LBE410:
.LBE411:
.LBE412:
.LBE415:
.LBE418:
	.cfi_endproc
.LFE52:
	.size	push_nonzero_ring, .-push_nonzero_ring
	.p2align 4,,15
	.globl	zero_seen
	.type	zero_seen, @function
zero_seen:
.LFB53:
	.loc 1 732 0
	.cfi_startproc
.LVL483:
	pushq	%rbx
	.cfi_def_cfa_offset 16
	.cfi_offset 3, -16
	.loc 1 732 0
	movq	%rdi, %rbx
	.loc 1 733 0
	movl	$0, (%rdi)
	jmp	.L177
.LVL484:
	.p2align 4,,10
	.p2align 3
.L178:
.LBB419:
.LBB420:
	.loc 1 684 0
	leal	-1(%rax), %edx
.LBE420:
.LBE419:
	.loc 1 737 0
	movq	%rbx, %rdi
.LBB422:
.LBB421:
	.loc 1 684 0
	movl	%edx, (%rbx)
.LVL485:
	.loc 1 685 0
	movq	8(%rbx), %rdx
.LBE421:
.LBE422:
	.loc 1 737 0
	movq	(%rdx,%rax,8), %rsi
	xorq	$64, %rsi
.LVL486:
.L177:
	.loc 1 734 0
	xorl	%eax, %eax
	call	push_nonzero_ring
.LVL487:
	.loc 1 735 0
	movslq	(%rbx), %rax
	testl	%eax, %eax
	jne	.L178
	.loc 1 739 0
	popq	%rbx
	.cfi_def_cfa_offset 8
.LVL488:
	ret
	.cfi_endproc
.LFE53:
	.size	zero_seen, .-zero_seen
	.globl	statistics
	.bss
	.align 4
	.type	statistics, @object
	.size	statistics, 4
statistics:
	.zero	4
	.globl	fileout
	.data
	.align 4
	.type	fileout, @object
	.size	fileout, 4
fileout:
	.long	1
	.globl	filein
	.bss
	.align 4
	.type	filein, @object
	.size	filein, 4
filein:
	.zero	4
	.globl	randum
	.data
	.align 4
	.type	randum, @object
	.size	randum, 4
randum:
	.long	1
	.globl	loop
	.bss
	.align 4
	.type	loop, @object
	.size	loop, 4
loop:
	.zero	4
	.comm	avail_edge,8,8
	.comm	next_edge,8,8
	.comm	flag,4,4
	.comm	NDim,4,4
	.comm	NumNodes,4,4
	.comm	see,8,8
	.comm	ahost,4,4
	.comm	interactive,4,4
	.comm	delaunay,4,4
	.comm	voronoi,4,4
	.comm	to_color,4,4
	.comm	to_3d_out,4,4
	.comm	to_off,4,4
	.comm	to_lincoln,4,4
	.comm	stack_size,4,4
	.comm	num_edgeparts,4,4
	.comm	num_vertices,4,4
	.comm	org,8,8
	.comm	next,8,8
	.comm	va,8,8
	.comm	vp,8,8
	.section	.rodata.cst8,"aM",@progbits,8
	.align 8
.LC2:
	.long	0
	.long	0
	.align 8
.LC8:
	.long	4290772992
	.long	1105199103
	.align 8
.LC11:
	.long	0
	.long	1072693248
	.text
.Letext0:
	.file 3 "/usr/lib/gcc/x86_64-linux-gnu/7/include/stddef.h"
	.file 4 "/usr/include/x86_64-linux-gnu/bits/types.h"
	.file 5 "/usr/include/x86_64-linux-gnu/bits/libio.h"
	.file 6 "/usr/include/stdio.h"
	.file 7 "../olden/voronoi/src/defines.h"
	.file 8 "/usr/include/malloc.h"
	.file 9 "/usr/include/stdlib.h"
	.file 10 "/usr/include/x86_64-linux-gnu/bits/mathcalls.h"
	.file 11 "<built-in>"
	.section	.note.GNU-stack,"",@progbits
