	.file	"par-alloc.c"
	.text
.Ltext0:
	.p2align 4,,15
	.globl	TreeAlloc
	.type	TreeAlloc, @function
TreeAlloc:
.LFB12:
	.file 1 "../olden/treeadd/src/par-alloc.c"
	.loc 1 14 0
	.cfi_startproc
.LVL0:
	pushq	%r14
	.cfi_def_cfa_offset 16
	.cfi_offset 14, -16
	pushq	%r13
	.cfi_def_cfa_offset 24
	.cfi_offset 13, -24
	pushq	%r12
	.cfi_def_cfa_offset 32
	.cfi_offset 12, -32
	xorl	%r12d, %r12d
	.loc 1 15 0
	testl	%edi, %edi
	.loc 1 14 0
	pushq	%rbp
	.cfi_def_cfa_offset 40
	.cfi_offset 6, -40
	pushq	%rbx
	.cfi_def_cfa_offset 48
	.cfi_offset 3, -48
	.loc 1 15 0
	je	.L1
	movl	%edx, %r14d
	movl	%esi, %r13d
	movl	%edi, %ebx
.LBB2:
	.loc 1 20 0
	movl	%r14d, %ebp
	.loc 1 19 0
	movl	$24, %edi
.LVL1:
	.loc 1 20 0
	subl	$1, %ebx
.LVL2:
	shrl	$31, %ebp
	addl	%r14d, %ebp
	sarl	%ebp
	.loc 1 19 0
	call	malloc@PLT
.LVL3:
	.loc 1 20 0
	leal	0(%rbp,%r13), %esi
	movl	%ebp, %edx
	movl	%ebx, %edi
	.loc 1 19 0
	movq	%rax, %r12
.LVL4:
	.loc 1 20 0
	call	TreeAlloc
.LVL5:
	.loc 1 21 0
	movl	%ebp, %edx
	.loc 1 20 0
	movq	%rax, %r14
.LVL6:
	.loc 1 21 0
	movl	%r13d, %esi
	movl	%ebx, %edi
	call	TreeAlloc
.LVL7:
	.loc 1 22 0
	movl	$1, (%r12)
	.loc 1 23 0
	movq	%r14, 8(%r12)
	.loc 1 24 0
	movq	%rax, 16(%r12)
.LVL8:
.L1:
.LBE2:
	.loc 1 27 0
	popq	%rbx
	.cfi_def_cfa_offset 40
	movq	%r12, %rax
	popq	%rbp
	.cfi_def_cfa_offset 32
	popq	%r12
	.cfi_def_cfa_offset 24
	popq	%r13
	.cfi_def_cfa_offset 16
	popq	%r14
	.cfi_def_cfa_offset 8
	ret
	.cfi_endproc
.LFE12:
	.size	TreeAlloc, .-TreeAlloc
.Letext0:
	.file 2 "/usr/lib/gcc/x86_64-linux-gnu/7/include/stddef.h"
	.file 3 "/usr/include/x86_64-linux-gnu/bits/types.h"
	.file 4 "/usr/include/x86_64-linux-gnu/bits/libio.h"
	.file 5 "/usr/include/stdio.h"
	.file 6 "../olden/treeadd/src/tree.h"
	.section	.note.GNU-stack,"",@progbits
